   1               		.file	"rgblight.c"
   2               	__SP_H__ = 0x3e
   3               	__SP_L__ = 0x3d
   4               	__SREG__ = 0x3f
   5               	__tmp_reg__ = 0
   6               	__zero_reg__ = 1
   7               		.text
   8               	.Ltext0:
   9               		.cfi_sections	.debug_frame
  10               		.section	.text.rgblight_effect_dummy,"ax",@progbits
  12               	rgblight_effect_dummy:
  13               	.LVL0:
  14               	.LFB172:
  15               		.file 1 "quantum/rgblight.c"
   1:quantum/rgblight.c **** /* Copyright 2016-2017 Yang Liu
   2:quantum/rgblight.c ****  *
   3:quantum/rgblight.c ****  * This program is free software: you can redistribute it and/or modify
   4:quantum/rgblight.c ****  * it under the terms of the GNU General Public License as published by
   5:quantum/rgblight.c ****  * the Free Software Foundation, either version 2 of the License, or
   6:quantum/rgblight.c ****  * (at your option) any later version.
   7:quantum/rgblight.c ****  *
   8:quantum/rgblight.c ****  * This program is distributed in the hope that it will be useful,
   9:quantum/rgblight.c ****  * but WITHOUT ANY WARRANTY; without even the implied warranty of
  10:quantum/rgblight.c ****  * MERCHANTABILITY or FITNESS FOR A PARTICULAR PURPOSE.  See the
  11:quantum/rgblight.c ****  * GNU General Public License for more details.
  12:quantum/rgblight.c ****  *
  13:quantum/rgblight.c ****  * You should have received a copy of the GNU General Public License
  14:quantum/rgblight.c ****  * along with this program.  If not, see <http://www.gnu.org/licenses/>.
  15:quantum/rgblight.c ****  */
  16:quantum/rgblight.c **** #include <math.h>
  17:quantum/rgblight.c **** #include <string.h>
  18:quantum/rgblight.c **** #include <stdlib.h>
  19:quantum/rgblight.c **** #include "wait.h"
  20:quantum/rgblight.c **** #include "progmem.h"
  21:quantum/rgblight.c **** #include "sync_timer.h"
  22:quantum/rgblight.c **** #include "rgblight.h"
  23:quantum/rgblight.c **** #include "color.h"
  24:quantum/rgblight.c **** #include "debug.h"
  25:quantum/rgblight.c **** #include "led_tables.h"
  26:quantum/rgblight.c **** #include <lib/lib8tion/lib8tion.h>
  27:quantum/rgblight.c **** #ifdef EEPROM_ENABLE
  28:quantum/rgblight.c **** #    include "eeprom.h"
  29:quantum/rgblight.c **** #endif
  30:quantum/rgblight.c **** #ifdef VELOCIKEY_ENABLE
  31:quantum/rgblight.c **** #    include "velocikey.h"
  32:quantum/rgblight.c **** #endif
  33:quantum/rgblight.c **** 
  34:quantum/rgblight.c **** #ifndef MIN
  35:quantum/rgblight.c **** #    define MIN(a, b) (((a) < (b)) ? (a) : (b))
  36:quantum/rgblight.c **** #endif
  37:quantum/rgblight.c **** #ifndef MAX
  38:quantum/rgblight.c **** #    define MAX(a, b) (((a) > (b)) ? (a) : (b))
  39:quantum/rgblight.c **** #endif
  40:quantum/rgblight.c **** 
  41:quantum/rgblight.c **** #ifdef RGBLIGHT_SPLIT
  42:quantum/rgblight.c **** /* for split keyboard */
  43:quantum/rgblight.c **** #    define RGBLIGHT_SPLIT_SET_CHANGE_MODE rgblight_status.change_flags |= RGBLIGHT_STATUS_CHANGE_M
  44:quantum/rgblight.c **** #    define RGBLIGHT_SPLIT_SET_CHANGE_HSVS rgblight_status.change_flags |= RGBLIGHT_STATUS_CHANGE_H
  45:quantum/rgblight.c **** #    define RGBLIGHT_SPLIT_SET_CHANGE_MODEHSVS rgblight_status.change_flags |= (RGBLIGHT_STATUS_CHA
  46:quantum/rgblight.c **** #    define RGBLIGHT_SPLIT_SET_CHANGE_LAYERS rgblight_status.change_flags |= RGBLIGHT_STATUS_CHANGE
  47:quantum/rgblight.c **** #    define RGBLIGHT_SPLIT_SET_CHANGE_TIMER_ENABLE rgblight_status.change_flags |= RGBLIGHT_STATUS_
  48:quantum/rgblight.c **** #    define RGBLIGHT_SPLIT_ANIMATION_TICK rgblight_status.change_flags |= RGBLIGHT_STATUS_ANIMATION
  49:quantum/rgblight.c **** #else
  50:quantum/rgblight.c **** #    define RGBLIGHT_SPLIT_SET_CHANGE_MODE
  51:quantum/rgblight.c **** #    define RGBLIGHT_SPLIT_SET_CHANGE_HSVS
  52:quantum/rgblight.c **** #    define RGBLIGHT_SPLIT_SET_CHANGE_MODEHSVS
  53:quantum/rgblight.c **** #    define RGBLIGHT_SPLIT_SET_CHANGE_LAYERS
  54:quantum/rgblight.c **** #    define RGBLIGHT_SPLIT_SET_CHANGE_TIMER_ENABLE
  55:quantum/rgblight.c **** #    define RGBLIGHT_SPLIT_ANIMATION_TICK
  56:quantum/rgblight.c **** #endif
  57:quantum/rgblight.c **** 
  58:quantum/rgblight.c **** #define _RGBM_SINGLE_STATIC(sym) RGBLIGHT_MODE_##sym,
  59:quantum/rgblight.c **** #define _RGBM_SINGLE_DYNAMIC(sym)
  60:quantum/rgblight.c **** #define _RGBM_MULTI_STATIC(sym) RGBLIGHT_MODE_##sym,
  61:quantum/rgblight.c **** #define _RGBM_MULTI_DYNAMIC(sym)
  62:quantum/rgblight.c **** #define _RGBM_TMP_STATIC(sym, msym) RGBLIGHT_MODE_##sym,
  63:quantum/rgblight.c **** #define _RGBM_TMP_DYNAMIC(sym, msym)
  64:quantum/rgblight.c **** static uint8_t static_effect_table[] = {
  65:quantum/rgblight.c **** #include "rgblight_modes.h"
  66:quantum/rgblight.c **** };
  67:quantum/rgblight.c **** 
  68:quantum/rgblight.c **** #define _RGBM_SINGLE_STATIC(sym) RGBLIGHT_MODE_##sym,
  69:quantum/rgblight.c **** #define _RGBM_SINGLE_DYNAMIC(sym) RGBLIGHT_MODE_##sym,
  70:quantum/rgblight.c **** #define _RGBM_MULTI_STATIC(sym) RGBLIGHT_MODE_##sym,
  71:quantum/rgblight.c **** #define _RGBM_MULTI_DYNAMIC(sym) RGBLIGHT_MODE_##sym,
  72:quantum/rgblight.c **** #define _RGBM_TMP_STATIC(sym, msym) RGBLIGHT_MODE_##msym,
  73:quantum/rgblight.c **** #define _RGBM_TMP_DYNAMIC(sym, msym) RGBLIGHT_MODE_##msym,
  74:quantum/rgblight.c **** static uint8_t mode_base_table[] = {
  75:quantum/rgblight.c ****     0,  // RGBLIGHT_MODE_zero
  76:quantum/rgblight.c **** #include "rgblight_modes.h"
  77:quantum/rgblight.c **** };
  78:quantum/rgblight.c **** 
  79:quantum/rgblight.c **** #if !defined(RGBLIGHT_DEFAULT_MODE)
  80:quantum/rgblight.c **** #    define RGBLIGHT_DEFAULT_MODE RGBLIGHT_MODE_STATIC_LIGHT
  81:quantum/rgblight.c **** #endif
  82:quantum/rgblight.c **** 
  83:quantum/rgblight.c **** #if !defined(RGBLIGHT_DEFAULT_HUE)
  84:quantum/rgblight.c **** #    define RGBLIGHT_DEFAULT_HUE 0
  85:quantum/rgblight.c **** #endif
  86:quantum/rgblight.c **** 
  87:quantum/rgblight.c **** #if !defined(RGBLIGHT_DEFAULT_SAT)
  88:quantum/rgblight.c **** #    define RGBLIGHT_DEFAULT_SAT UINT8_MAX
  89:quantum/rgblight.c **** #endif
  90:quantum/rgblight.c **** 
  91:quantum/rgblight.c **** #if !defined(RGBLIGHT_DEFAULT_VAL)
  92:quantum/rgblight.c **** #    define RGBLIGHT_DEFAULT_VAL RGBLIGHT_LIMIT_VAL
  93:quantum/rgblight.c **** #endif
  94:quantum/rgblight.c **** 
  95:quantum/rgblight.c **** #if !defined(RGBLIGHT_DEFAULT_SPD)
  96:quantum/rgblight.c **** #    define RGBLIGHT_DEFAULT_SPD 0
  97:quantum/rgblight.c **** #endif
  98:quantum/rgblight.c **** 
  99:quantum/rgblight.c **** static inline int is_static_effect(uint8_t mode) { return memchr(static_effect_table, mode, sizeof(
 100:quantum/rgblight.c **** 
 101:quantum/rgblight.c **** #ifdef RGBLIGHT_LED_MAP
 102:quantum/rgblight.c **** const uint8_t led_map[] PROGMEM = RGBLIGHT_LED_MAP;
 103:quantum/rgblight.c **** #endif
 104:quantum/rgblight.c **** 
 105:quantum/rgblight.c **** #ifdef RGBLIGHT_EFFECT_STATIC_GRADIENT
 106:quantum/rgblight.c **** __attribute__((weak)) const uint8_t RGBLED_GRADIENT_RANGES[] PROGMEM = {255, 170, 127, 85, 64};
 107:quantum/rgblight.c **** #endif
 108:quantum/rgblight.c **** 
 109:quantum/rgblight.c **** rgblight_config_t rgblight_config;
 110:quantum/rgblight.c **** rgblight_status_t rgblight_status         = {.timer_enabled = false};
 111:quantum/rgblight.c **** bool              is_rgblight_initialized = false;
 112:quantum/rgblight.c **** 
 113:quantum/rgblight.c **** #ifdef RGBLIGHT_SLEEP
 114:quantum/rgblight.c **** static bool is_suspended;
 115:quantum/rgblight.c **** static bool pre_suspend_enabled;
 116:quantum/rgblight.c **** #endif
 117:quantum/rgblight.c **** 
 118:quantum/rgblight.c **** #ifdef RGBLIGHT_USE_TIMER
 119:quantum/rgblight.c **** animation_status_t animation_status = {};
 120:quantum/rgblight.c **** #endif
 121:quantum/rgblight.c **** 
 122:quantum/rgblight.c **** #ifndef LED_ARRAY
 123:quantum/rgblight.c **** LED_TYPE led[RGBLED_NUM];
 124:quantum/rgblight.c **** #    define LED_ARRAY led
 125:quantum/rgblight.c **** #endif
 126:quantum/rgblight.c **** 
 127:quantum/rgblight.c **** #ifdef RGBLIGHT_LAYERS
 128:quantum/rgblight.c **** rgblight_segment_t const *const *rgblight_layers = NULL;
 129:quantum/rgblight.c **** #endif
 130:quantum/rgblight.c **** 
 131:quantum/rgblight.c **** rgblight_ranges_t rgblight_ranges = {0, RGBLED_NUM, 0, RGBLED_NUM, RGBLED_NUM};
 132:quantum/rgblight.c **** 
 133:quantum/rgblight.c **** void rgblight_set_clipping_range(uint8_t start_pos, uint8_t num_leds) {
 134:quantum/rgblight.c ****     rgblight_ranges.clipping_start_pos = start_pos;
 135:quantum/rgblight.c ****     rgblight_ranges.clipping_num_leds  = num_leds;
 136:quantum/rgblight.c **** }
 137:quantum/rgblight.c **** 
 138:quantum/rgblight.c **** void rgblight_set_effect_range(uint8_t start_pos, uint8_t num_leds) {
 139:quantum/rgblight.c ****     if (start_pos >= RGBLED_NUM) return;
 140:quantum/rgblight.c ****     if (start_pos + num_leds > RGBLED_NUM) return;
 141:quantum/rgblight.c ****     rgblight_ranges.effect_start_pos = start_pos;
 142:quantum/rgblight.c ****     rgblight_ranges.effect_end_pos   = start_pos + num_leds;
 143:quantum/rgblight.c ****     rgblight_ranges.effect_num_leds  = num_leds;
 144:quantum/rgblight.c **** }
 145:quantum/rgblight.c **** 
 146:quantum/rgblight.c **** __attribute__((weak)) RGB rgblight_hsv_to_rgb(HSV hsv) { return hsv_to_rgb(hsv); }
 147:quantum/rgblight.c **** 
 148:quantum/rgblight.c **** void sethsv_raw(uint8_t hue, uint8_t sat, uint8_t val, LED_TYPE *led1) {
 149:quantum/rgblight.c ****     HSV hsv = {hue, sat, val};
 150:quantum/rgblight.c ****     RGB rgb = rgblight_hsv_to_rgb(hsv);
 151:quantum/rgblight.c ****     setrgb(rgb.r, rgb.g, rgb.b, led1);
 152:quantum/rgblight.c **** }
 153:quantum/rgblight.c **** 
 154:quantum/rgblight.c **** void sethsv(uint8_t hue, uint8_t sat, uint8_t val, LED_TYPE *led1) { sethsv_raw(hue, sat, val > RGB
 155:quantum/rgblight.c **** 
 156:quantum/rgblight.c **** void setrgb(uint8_t r, uint8_t g, uint8_t b, LED_TYPE *led1) {
 157:quantum/rgblight.c ****     led1->r = r;
 158:quantum/rgblight.c ****     led1->g = g;
 159:quantum/rgblight.c ****     led1->b = b;
 160:quantum/rgblight.c **** #ifdef RGBW
 161:quantum/rgblight.c ****     led1->w = 0;
 162:quantum/rgblight.c **** #endif
 163:quantum/rgblight.c **** }
 164:quantum/rgblight.c **** 
 165:quantum/rgblight.c **** void rgblight_check_config(void) {
 166:quantum/rgblight.c ****     /* Add some out of bound checks for RGB light config */
 167:quantum/rgblight.c **** 
 168:quantum/rgblight.c ****     if (rgblight_config.mode < RGBLIGHT_MODE_STATIC_LIGHT) {
 169:quantum/rgblight.c ****         rgblight_config.mode = RGBLIGHT_MODE_STATIC_LIGHT;
 170:quantum/rgblight.c ****     } else if (rgblight_config.mode > RGBLIGHT_MODES) {
 171:quantum/rgblight.c ****         rgblight_config.mode = RGBLIGHT_MODES;
 172:quantum/rgblight.c ****     }
 173:quantum/rgblight.c **** 
 174:quantum/rgblight.c ****     if (rgblight_config.val > RGBLIGHT_LIMIT_VAL) {
 175:quantum/rgblight.c ****         rgblight_config.val = RGBLIGHT_LIMIT_VAL;
 176:quantum/rgblight.c ****     }
 177:quantum/rgblight.c **** }
 178:quantum/rgblight.c **** 
 179:quantum/rgblight.c **** uint32_t eeconfig_read_rgblight(void) {
 180:quantum/rgblight.c **** #ifdef EEPROM_ENABLE
 181:quantum/rgblight.c ****     return eeprom_read_dword(EECONFIG_RGBLIGHT);
 182:quantum/rgblight.c **** #else
 183:quantum/rgblight.c ****     return 0;
 184:quantum/rgblight.c **** #endif
 185:quantum/rgblight.c **** }
 186:quantum/rgblight.c **** 
 187:quantum/rgblight.c **** void eeconfig_update_rgblight(uint32_t val) {
 188:quantum/rgblight.c **** #ifdef EEPROM_ENABLE
 189:quantum/rgblight.c ****     rgblight_check_config();
 190:quantum/rgblight.c ****     eeprom_update_dword(EECONFIG_RGBLIGHT, val);
 191:quantum/rgblight.c **** #endif
 192:quantum/rgblight.c **** }
 193:quantum/rgblight.c **** 
 194:quantum/rgblight.c **** void eeconfig_update_rgblight_current(void) { eeconfig_update_rgblight(rgblight_config.raw); }
 195:quantum/rgblight.c **** 
 196:quantum/rgblight.c **** void eeconfig_update_rgblight_default(void) {
 197:quantum/rgblight.c ****     rgblight_config.enable = 1;
 198:quantum/rgblight.c ****     rgblight_config.mode   = RGBLIGHT_DEFAULT_MODE;
 199:quantum/rgblight.c ****     rgblight_config.hue    = RGBLIGHT_DEFAULT_HUE;
 200:quantum/rgblight.c ****     rgblight_config.sat    = RGBLIGHT_DEFAULT_SAT;
 201:quantum/rgblight.c ****     rgblight_config.val    = RGBLIGHT_DEFAULT_VAL;
 202:quantum/rgblight.c ****     rgblight_config.speed  = RGBLIGHT_DEFAULT_SPD;
 203:quantum/rgblight.c ****     RGBLIGHT_SPLIT_SET_CHANGE_MODEHSVS;
 204:quantum/rgblight.c ****     eeconfig_update_rgblight(rgblight_config.raw);
 205:quantum/rgblight.c **** }
 206:quantum/rgblight.c **** 
 207:quantum/rgblight.c **** void eeconfig_debug_rgblight(void) {
 208:quantum/rgblight.c ****     dprintf("rgblight_config EEPROM:\n");
 209:quantum/rgblight.c ****     dprintf("rgblight_config.enable = %d\n", rgblight_config.enable);
 210:quantum/rgblight.c ****     dprintf("rghlight_config.mode = %d\n", rgblight_config.mode);
 211:quantum/rgblight.c ****     dprintf("rgblight_config.hue = %d\n", rgblight_config.hue);
 212:quantum/rgblight.c ****     dprintf("rgblight_config.sat = %d\n", rgblight_config.sat);
 213:quantum/rgblight.c ****     dprintf("rgblight_config.val = %d\n", rgblight_config.val);
 214:quantum/rgblight.c ****     dprintf("rgblight_config.speed = %d\n", rgblight_config.speed);
 215:quantum/rgblight.c **** }
 216:quantum/rgblight.c **** 
 217:quantum/rgblight.c **** void rgblight_init(void) {
 218:quantum/rgblight.c ****     /* if already initialized, don't do it again.
 219:quantum/rgblight.c ****        If you must do it again, extern this and set to false, first.
 220:quantum/rgblight.c ****        This is a dirty, dirty hack until proper hooks can be added for keyboard startup. */
 221:quantum/rgblight.c ****     if (is_rgblight_initialized) {
 222:quantum/rgblight.c ****         return;
 223:quantum/rgblight.c ****     }
 224:quantum/rgblight.c **** 
 225:quantum/rgblight.c ****     dprintf("rgblight_init called.\n");
 226:quantum/rgblight.c ****     dprintf("rgblight_init start!\n");
 227:quantum/rgblight.c ****     if (!eeconfig_is_enabled()) {
 228:quantum/rgblight.c ****         dprintf("rgblight_init eeconfig is not enabled.\n");
 229:quantum/rgblight.c ****         eeconfig_init();
 230:quantum/rgblight.c ****         eeconfig_update_rgblight_default();
 231:quantum/rgblight.c ****     }
 232:quantum/rgblight.c ****     rgblight_config.raw = eeconfig_read_rgblight();
 233:quantum/rgblight.c ****     RGBLIGHT_SPLIT_SET_CHANGE_MODEHSVS;
 234:quantum/rgblight.c ****     if (!rgblight_config.mode) {
 235:quantum/rgblight.c ****         dprintf("rgblight_init rgblight_config.mode = 0. Write default values to EEPROM.\n");
 236:quantum/rgblight.c ****         eeconfig_update_rgblight_default();
 237:quantum/rgblight.c ****         rgblight_config.raw = eeconfig_read_rgblight();
 238:quantum/rgblight.c ****     }
 239:quantum/rgblight.c ****     rgblight_check_config();
 240:quantum/rgblight.c **** 
 241:quantum/rgblight.c ****     eeconfig_debug_rgblight();  // display current eeprom values
 242:quantum/rgblight.c **** 
 243:quantum/rgblight.c ****     rgblight_timer_init();  // setup the timer
 244:quantum/rgblight.c **** 
 245:quantum/rgblight.c ****     if (rgblight_config.enable) {
 246:quantum/rgblight.c ****         rgblight_mode_noeeprom(rgblight_config.mode);
 247:quantum/rgblight.c ****     }
 248:quantum/rgblight.c **** 
 249:quantum/rgblight.c ****     is_rgblight_initialized = true;
 250:quantum/rgblight.c **** }
 251:quantum/rgblight.c **** 
 252:quantum/rgblight.c **** void rgblight_reload_from_eeprom(void) {
 253:quantum/rgblight.c ****     /* Reset back to what we have in eeprom */
 254:quantum/rgblight.c ****     rgblight_config.raw = eeconfig_read_rgblight();
 255:quantum/rgblight.c ****     RGBLIGHT_SPLIT_SET_CHANGE_MODEHSVS;
 256:quantum/rgblight.c ****     rgblight_check_config();
 257:quantum/rgblight.c ****     eeconfig_debug_rgblight();  // display current eeprom values
 258:quantum/rgblight.c ****     if (rgblight_config.enable) {
 259:quantum/rgblight.c ****         rgblight_mode_noeeprom(rgblight_config.mode);
 260:quantum/rgblight.c ****     }
 261:quantum/rgblight.c **** }
 262:quantum/rgblight.c **** 
 263:quantum/rgblight.c **** uint32_t rgblight_read_dword(void) { return rgblight_config.raw; }
 264:quantum/rgblight.c **** 
 265:quantum/rgblight.c **** void rgblight_update_dword(uint32_t dword) {
 266:quantum/rgblight.c ****     RGBLIGHT_SPLIT_SET_CHANGE_MODEHSVS;
 267:quantum/rgblight.c ****     rgblight_config.raw = dword;
 268:quantum/rgblight.c ****     if (rgblight_config.enable)
 269:quantum/rgblight.c ****         rgblight_mode_noeeprom(rgblight_config.mode);
 270:quantum/rgblight.c ****     else {
 271:quantum/rgblight.c ****         rgblight_timer_disable();
 272:quantum/rgblight.c ****         rgblight_set();
 273:quantum/rgblight.c ****     }
 274:quantum/rgblight.c **** }
 275:quantum/rgblight.c **** 
 276:quantum/rgblight.c **** void rgblight_increase(void) {
 277:quantum/rgblight.c ****     uint8_t mode = 0;
 278:quantum/rgblight.c ****     if (rgblight_config.mode < RGBLIGHT_MODES) {
 279:quantum/rgblight.c ****         mode = rgblight_config.mode + 1;
 280:quantum/rgblight.c ****     }
 281:quantum/rgblight.c ****     rgblight_mode(mode);
 282:quantum/rgblight.c **** }
 283:quantum/rgblight.c **** void rgblight_decrease(void) {
 284:quantum/rgblight.c ****     uint8_t mode = 0;
 285:quantum/rgblight.c ****     // Mode will never be < 1. If it ever is, eeprom needs to be initialized.
 286:quantum/rgblight.c ****     if (rgblight_config.mode > RGBLIGHT_MODE_STATIC_LIGHT) {
 287:quantum/rgblight.c ****         mode = rgblight_config.mode - 1;
 288:quantum/rgblight.c ****     }
 289:quantum/rgblight.c ****     rgblight_mode(mode);
 290:quantum/rgblight.c **** }
 291:quantum/rgblight.c **** void rgblight_step_helper(bool write_to_eeprom) {
 292:quantum/rgblight.c ****     uint8_t mode = 0;
 293:quantum/rgblight.c ****     mode         = rgblight_config.mode + 1;
 294:quantum/rgblight.c ****     if (mode > RGBLIGHT_MODES) {
 295:quantum/rgblight.c ****         mode = 1;
 296:quantum/rgblight.c ****     }
 297:quantum/rgblight.c ****     rgblight_mode_eeprom_helper(mode, write_to_eeprom);
 298:quantum/rgblight.c **** }
 299:quantum/rgblight.c **** void rgblight_step_noeeprom(void) { rgblight_step_helper(false); }
 300:quantum/rgblight.c **** void rgblight_step(void) { rgblight_step_helper(true); }
 301:quantum/rgblight.c **** void rgblight_step_reverse_helper(bool write_to_eeprom) {
 302:quantum/rgblight.c ****     uint8_t mode = 0;
 303:quantum/rgblight.c ****     mode         = rgblight_config.mode - 1;
 304:quantum/rgblight.c ****     if (mode < 1) {
 305:quantum/rgblight.c ****         mode = RGBLIGHT_MODES;
 306:quantum/rgblight.c ****     }
 307:quantum/rgblight.c ****     rgblight_mode_eeprom_helper(mode, write_to_eeprom);
 308:quantum/rgblight.c **** }
 309:quantum/rgblight.c **** void rgblight_step_reverse_noeeprom(void) { rgblight_step_reverse_helper(false); }
 310:quantum/rgblight.c **** void rgblight_step_reverse(void) { rgblight_step_reverse_helper(true); }
 311:quantum/rgblight.c **** 
 312:quantum/rgblight.c **** uint8_t rgblight_get_mode(void) {
 313:quantum/rgblight.c ****     if (!rgblight_config.enable) {
 314:quantum/rgblight.c ****         return false;
 315:quantum/rgblight.c ****     }
 316:quantum/rgblight.c **** 
 317:quantum/rgblight.c ****     return rgblight_config.mode;
 318:quantum/rgblight.c **** }
 319:quantum/rgblight.c **** 
 320:quantum/rgblight.c **** void rgblight_mode_eeprom_helper(uint8_t mode, bool write_to_eeprom) {
 321:quantum/rgblight.c ****     if (!rgblight_config.enable) {
 322:quantum/rgblight.c ****         return;
 323:quantum/rgblight.c ****     }
 324:quantum/rgblight.c ****     if (mode < RGBLIGHT_MODE_STATIC_LIGHT) {
 325:quantum/rgblight.c ****         rgblight_config.mode = RGBLIGHT_MODE_STATIC_LIGHT;
 326:quantum/rgblight.c ****     } else if (mode > RGBLIGHT_MODES) {
 327:quantum/rgblight.c ****         rgblight_config.mode = RGBLIGHT_MODES;
 328:quantum/rgblight.c ****     } else {
 329:quantum/rgblight.c ****         rgblight_config.mode = mode;
 330:quantum/rgblight.c ****     }
 331:quantum/rgblight.c ****     RGBLIGHT_SPLIT_SET_CHANGE_MODE;
 332:quantum/rgblight.c ****     if (write_to_eeprom) {
 333:quantum/rgblight.c ****         eeconfig_update_rgblight(rgblight_config.raw);
 334:quantum/rgblight.c ****         dprintf("rgblight mode [EEPROM]: %u\n", rgblight_config.mode);
 335:quantum/rgblight.c ****     } else {
 336:quantum/rgblight.c ****         dprintf("rgblight mode [NOEEPROM]: %u\n", rgblight_config.mode);
 337:quantum/rgblight.c ****     }
 338:quantum/rgblight.c ****     if (is_static_effect(rgblight_config.mode)) {
 339:quantum/rgblight.c ****         rgblight_timer_disable();
 340:quantum/rgblight.c ****     } else {
 341:quantum/rgblight.c ****         rgblight_timer_enable();
 342:quantum/rgblight.c ****     }
 343:quantum/rgblight.c **** #ifdef RGBLIGHT_USE_TIMER
 344:quantum/rgblight.c ****     animation_status.restart = true;
 345:quantum/rgblight.c **** #endif
 346:quantum/rgblight.c ****     rgblight_sethsv_noeeprom(rgblight_config.hue, rgblight_config.sat, rgblight_config.val);
 347:quantum/rgblight.c **** }
 348:quantum/rgblight.c **** 
 349:quantum/rgblight.c **** void rgblight_mode(uint8_t mode) { rgblight_mode_eeprom_helper(mode, true); }
 350:quantum/rgblight.c **** 
 351:quantum/rgblight.c **** void rgblight_mode_noeeprom(uint8_t mode) { rgblight_mode_eeprom_helper(mode, false); }
 352:quantum/rgblight.c **** 
 353:quantum/rgblight.c **** void rgblight_toggle(void) {
 354:quantum/rgblight.c ****     dprintf("rgblight toggle [EEPROM]: rgblight_config.enable = %u\n", !rgblight_config.enable);
 355:quantum/rgblight.c ****     if (rgblight_config.enable) {
 356:quantum/rgblight.c ****         rgblight_disable();
 357:quantum/rgblight.c ****     } else {
 358:quantum/rgblight.c ****         rgblight_enable();
 359:quantum/rgblight.c ****     }
 360:quantum/rgblight.c **** }
 361:quantum/rgblight.c **** 
 362:quantum/rgblight.c **** void rgblight_toggle_noeeprom(void) {
 363:quantum/rgblight.c ****     dprintf("rgblight toggle [NOEEPROM]: rgblight_config.enable = %u\n", !rgblight_config.enable);
 364:quantum/rgblight.c ****     if (rgblight_config.enable) {
 365:quantum/rgblight.c ****         rgblight_disable_noeeprom();
 366:quantum/rgblight.c ****     } else {
 367:quantum/rgblight.c ****         rgblight_enable_noeeprom();
 368:quantum/rgblight.c ****     }
 369:quantum/rgblight.c **** }
 370:quantum/rgblight.c **** 
 371:quantum/rgblight.c **** void rgblight_enable(void) {
 372:quantum/rgblight.c ****     rgblight_config.enable = 1;
 373:quantum/rgblight.c ****     // No need to update EEPROM here. rgblight_mode() will do that, actually
 374:quantum/rgblight.c ****     // eeconfig_update_rgblight(rgblight_config.raw);
 375:quantum/rgblight.c ****     dprintf("rgblight enable [EEPROM]: rgblight_config.enable = %u\n", rgblight_config.enable);
 376:quantum/rgblight.c ****     rgblight_mode(rgblight_config.mode);
 377:quantum/rgblight.c **** }
 378:quantum/rgblight.c **** 
 379:quantum/rgblight.c **** void rgblight_enable_noeeprom(void) {
 380:quantum/rgblight.c ****     rgblight_config.enable = 1;
 381:quantum/rgblight.c ****     dprintf("rgblight enable [NOEEPROM]: rgblight_config.enable = %u\n", rgblight_config.enable);
 382:quantum/rgblight.c ****     rgblight_mode_noeeprom(rgblight_config.mode);
 383:quantum/rgblight.c **** }
 384:quantum/rgblight.c **** 
 385:quantum/rgblight.c **** void rgblight_disable(void) {
 386:quantum/rgblight.c ****     rgblight_config.enable = 0;
 387:quantum/rgblight.c ****     eeconfig_update_rgblight(rgblight_config.raw);
 388:quantum/rgblight.c ****     dprintf("rgblight disable [EEPROM]: rgblight_config.enable = %u\n", rgblight_config.enable);
 389:quantum/rgblight.c ****     rgblight_timer_disable();
 390:quantum/rgblight.c ****     RGBLIGHT_SPLIT_SET_CHANGE_MODE;
 391:quantum/rgblight.c ****     wait_ms(50);
 392:quantum/rgblight.c ****     rgblight_set();
 393:quantum/rgblight.c **** }
 394:quantum/rgblight.c **** 
 395:quantum/rgblight.c **** void rgblight_disable_noeeprom(void) {
 396:quantum/rgblight.c ****     rgblight_config.enable = 0;
 397:quantum/rgblight.c ****     dprintf("rgblight disable [NOEEPROM]: rgblight_config.enable = %u\n", rgblight_config.enable);
 398:quantum/rgblight.c ****     rgblight_timer_disable();
 399:quantum/rgblight.c ****     RGBLIGHT_SPLIT_SET_CHANGE_MODE;
 400:quantum/rgblight.c ****     wait_ms(50);
 401:quantum/rgblight.c ****     rgblight_set();
 402:quantum/rgblight.c **** }
 403:quantum/rgblight.c **** 
 404:quantum/rgblight.c **** bool rgblight_is_enabled(void) { return rgblight_config.enable; }
 405:quantum/rgblight.c **** 
 406:quantum/rgblight.c **** void rgblight_increase_hue_helper(bool write_to_eeprom) {
 407:quantum/rgblight.c ****     uint8_t hue = rgblight_config.hue + RGBLIGHT_HUE_STEP;
 408:quantum/rgblight.c ****     rgblight_sethsv_eeprom_helper(hue, rgblight_config.sat, rgblight_config.val, write_to_eeprom);
 409:quantum/rgblight.c **** }
 410:quantum/rgblight.c **** void rgblight_increase_hue_noeeprom(void) { rgblight_increase_hue_helper(false); }
 411:quantum/rgblight.c **** void rgblight_increase_hue(void) { rgblight_increase_hue_helper(true); }
 412:quantum/rgblight.c **** void rgblight_decrease_hue_helper(bool write_to_eeprom) {
 413:quantum/rgblight.c ****     uint8_t hue = rgblight_config.hue - RGBLIGHT_HUE_STEP;
 414:quantum/rgblight.c ****     rgblight_sethsv_eeprom_helper(hue, rgblight_config.sat, rgblight_config.val, write_to_eeprom);
 415:quantum/rgblight.c **** }
 416:quantum/rgblight.c **** void rgblight_decrease_hue_noeeprom(void) { rgblight_decrease_hue_helper(false); }
 417:quantum/rgblight.c **** void rgblight_decrease_hue(void) { rgblight_decrease_hue_helper(true); }
 418:quantum/rgblight.c **** void rgblight_increase_sat_helper(bool write_to_eeprom) {
 419:quantum/rgblight.c ****     uint8_t sat = qadd8(rgblight_config.sat, RGBLIGHT_SAT_STEP);
 420:quantum/rgblight.c ****     rgblight_sethsv_eeprom_helper(rgblight_config.hue, sat, rgblight_config.val, write_to_eeprom);
 421:quantum/rgblight.c **** }
 422:quantum/rgblight.c **** void rgblight_increase_sat_noeeprom(void) { rgblight_increase_sat_helper(false); }
 423:quantum/rgblight.c **** void rgblight_increase_sat(void) { rgblight_increase_sat_helper(true); }
 424:quantum/rgblight.c **** void rgblight_decrease_sat_helper(bool write_to_eeprom) {
 425:quantum/rgblight.c ****     uint8_t sat = qsub8(rgblight_config.sat, RGBLIGHT_SAT_STEP);
 426:quantum/rgblight.c ****     rgblight_sethsv_eeprom_helper(rgblight_config.hue, sat, rgblight_config.val, write_to_eeprom);
 427:quantum/rgblight.c **** }
 428:quantum/rgblight.c **** void rgblight_decrease_sat_noeeprom(void) { rgblight_decrease_sat_helper(false); }
 429:quantum/rgblight.c **** void rgblight_decrease_sat(void) { rgblight_decrease_sat_helper(true); }
 430:quantum/rgblight.c **** void rgblight_increase_val_helper(bool write_to_eeprom) {
 431:quantum/rgblight.c ****     uint8_t val = qadd8(rgblight_config.val, RGBLIGHT_VAL_STEP);
 432:quantum/rgblight.c ****     rgblight_sethsv_eeprom_helper(rgblight_config.hue, rgblight_config.sat, val, write_to_eeprom);
 433:quantum/rgblight.c **** }
 434:quantum/rgblight.c **** void rgblight_increase_val_noeeprom(void) { rgblight_increase_val_helper(false); }
 435:quantum/rgblight.c **** void rgblight_increase_val(void) { rgblight_increase_val_helper(true); }
 436:quantum/rgblight.c **** void rgblight_decrease_val_helper(bool write_to_eeprom) {
 437:quantum/rgblight.c ****     uint8_t val = qsub8(rgblight_config.val, RGBLIGHT_VAL_STEP);
 438:quantum/rgblight.c ****     rgblight_sethsv_eeprom_helper(rgblight_config.hue, rgblight_config.sat, val, write_to_eeprom);
 439:quantum/rgblight.c **** }
 440:quantum/rgblight.c **** void rgblight_decrease_val_noeeprom(void) { rgblight_decrease_val_helper(false); }
 441:quantum/rgblight.c **** void rgblight_decrease_val(void) { rgblight_decrease_val_helper(true); }
 442:quantum/rgblight.c **** 
 443:quantum/rgblight.c **** void rgblight_increase_speed_helper(bool write_to_eeprom) {
 444:quantum/rgblight.c ****     if (rgblight_config.speed < 3) rgblight_config.speed++;
 445:quantum/rgblight.c ****     // RGBLIGHT_SPLIT_SET_CHANGE_HSVS; // NEED?
 446:quantum/rgblight.c ****     if (write_to_eeprom) {
 447:quantum/rgblight.c ****         eeconfig_update_rgblight(rgblight_config.raw);  // EECONFIG needs to be increased to suppor
 448:quantum/rgblight.c ****     }
 449:quantum/rgblight.c **** }
 450:quantum/rgblight.c **** void rgblight_increase_speed(void) { rgblight_increase_speed_helper(true); }
 451:quantum/rgblight.c **** void rgblight_increase_speed_noeeprom(void) { rgblight_increase_speed_helper(false); }
 452:quantum/rgblight.c **** 
 453:quantum/rgblight.c **** void rgblight_decrease_speed_helper(bool write_to_eeprom) {
 454:quantum/rgblight.c ****     if (rgblight_config.speed > 0) rgblight_config.speed--;
 455:quantum/rgblight.c ****     // RGBLIGHT_SPLIT_SET_CHANGE_HSVS; // NEED??
 456:quantum/rgblight.c ****     if (write_to_eeprom) {
 457:quantum/rgblight.c ****         eeconfig_update_rgblight(rgblight_config.raw);  // EECONFIG needs to be increased to suppor
 458:quantum/rgblight.c ****     }
 459:quantum/rgblight.c **** }
 460:quantum/rgblight.c **** void rgblight_decrease_speed(void) { rgblight_decrease_speed_helper(true); }
 461:quantum/rgblight.c **** void rgblight_decrease_speed_noeeprom(void) { rgblight_decrease_speed_helper(false); }
 462:quantum/rgblight.c **** 
 463:quantum/rgblight.c **** void rgblight_sethsv_noeeprom_old(uint8_t hue, uint8_t sat, uint8_t val) {
 464:quantum/rgblight.c ****     if (rgblight_config.enable) {
 465:quantum/rgblight.c ****         LED_TYPE tmp_led;
 466:quantum/rgblight.c ****         sethsv(hue, sat, val, &tmp_led);
 467:quantum/rgblight.c ****         rgblight_setrgb(tmp_led.r, tmp_led.g, tmp_led.b);
 468:quantum/rgblight.c ****     }
 469:quantum/rgblight.c **** }
 470:quantum/rgblight.c **** 
 471:quantum/rgblight.c **** void rgblight_sethsv_eeprom_helper(uint8_t hue, uint8_t sat, uint8_t val, bool write_to_eeprom) {
 472:quantum/rgblight.c ****     if (rgblight_config.enable) {
 473:quantum/rgblight.c ****         rgblight_status.base_mode = mode_base_table[rgblight_config.mode];
 474:quantum/rgblight.c ****         if (rgblight_config.mode == RGBLIGHT_MODE_STATIC_LIGHT) {
 475:quantum/rgblight.c ****             // same static color
 476:quantum/rgblight.c ****             LED_TYPE tmp_led;
 477:quantum/rgblight.c ****             sethsv(hue, sat, val, &tmp_led);
 478:quantum/rgblight.c ****             rgblight_setrgb(tmp_led.r, tmp_led.g, tmp_led.b);
 479:quantum/rgblight.c ****         } else {
 480:quantum/rgblight.c ****             // all LEDs in same color
 481:quantum/rgblight.c ****             if (1 == 0) {  // dummy
 482:quantum/rgblight.c ****             }
 483:quantum/rgblight.c **** #ifdef RGBLIGHT_EFFECT_BREATHING
 484:quantum/rgblight.c ****             else if (rgblight_status.base_mode == RGBLIGHT_MODE_BREATHING) {
 485:quantum/rgblight.c ****                 // breathing mode, ignore the change of val, use in memory value instead
 486:quantum/rgblight.c ****                 val = rgblight_config.val;
 487:quantum/rgblight.c ****             }
 488:quantum/rgblight.c **** #endif
 489:quantum/rgblight.c **** #ifdef RGBLIGHT_EFFECT_RAINBOW_MOOD
 490:quantum/rgblight.c ****             else if (rgblight_status.base_mode == RGBLIGHT_MODE_RAINBOW_MOOD) {
 491:quantum/rgblight.c ****                 // rainbow mood, ignore the change of hue
 492:quantum/rgblight.c ****                 hue = rgblight_config.hue;
 493:quantum/rgblight.c ****             }
 494:quantum/rgblight.c **** #endif
 495:quantum/rgblight.c **** #ifdef RGBLIGHT_EFFECT_RAINBOW_SWIRL
 496:quantum/rgblight.c ****             else if (rgblight_status.base_mode == RGBLIGHT_MODE_RAINBOW_SWIRL) {
 497:quantum/rgblight.c ****                 // rainbow swirl, ignore the change of hue
 498:quantum/rgblight.c ****                 hue = rgblight_config.hue;
 499:quantum/rgblight.c ****             }
 500:quantum/rgblight.c **** #endif
 501:quantum/rgblight.c **** #ifdef RGBLIGHT_EFFECT_STATIC_GRADIENT
 502:quantum/rgblight.c ****             else if (rgblight_status.base_mode == RGBLIGHT_MODE_STATIC_GRADIENT) {
 503:quantum/rgblight.c ****                 // static gradient
 504:quantum/rgblight.c ****                 uint8_t delta     = rgblight_config.mode - rgblight_status.base_mode;
 505:quantum/rgblight.c ****                 bool    direction = (delta % 2) == 0;
 506:quantum/rgblight.c **** #    ifdef __AVR__
 507:quantum/rgblight.c ****                 // probably due to how pgm_read_word is defined for ARM, but the ARM compiler reall
 508:quantum/rgblight.c ****                 uint8_t range = pgm_read_word(&RGBLED_GRADIENT_RANGES[delta / 2]);
 509:quantum/rgblight.c **** #    else
 510:quantum/rgblight.c ****                 uint8_t range = RGBLED_GRADIENT_RANGES[delta / 2];
 511:quantum/rgblight.c **** #    endif
 512:quantum/rgblight.c ****                 for (uint8_t i = 0; i < rgblight_ranges.effect_num_leds; i++) {
 513:quantum/rgblight.c ****                     uint8_t _hue = ((uint16_t)i * (uint16_t)range) / rgblight_ranges.effect_num_led
 514:quantum/rgblight.c ****                     if (direction) {
 515:quantum/rgblight.c ****                         _hue = hue + _hue;
 516:quantum/rgblight.c ****                     } else {
 517:quantum/rgblight.c ****                         _hue = hue - _hue;
 518:quantum/rgblight.c ****                     }
 519:quantum/rgblight.c ****                     dprintf("rgblight rainbow set hsv: %d,%d,%d,%u\n", i, _hue, direction, range);
 520:quantum/rgblight.c ****                     sethsv(_hue, sat, val, (LED_TYPE *)&led[i + rgblight_ranges.effect_start_pos]);
 521:quantum/rgblight.c ****                 }
 522:quantum/rgblight.c ****                 rgblight_set();
 523:quantum/rgblight.c ****             }
 524:quantum/rgblight.c **** #endif
 525:quantum/rgblight.c ****         }
 526:quantum/rgblight.c **** #ifdef RGBLIGHT_SPLIT
 527:quantum/rgblight.c ****         if (rgblight_config.hue != hue || rgblight_config.sat != sat || rgblight_config.val != val)
 528:quantum/rgblight.c ****             RGBLIGHT_SPLIT_SET_CHANGE_HSVS;
 529:quantum/rgblight.c ****         }
 530:quantum/rgblight.c **** #endif
 531:quantum/rgblight.c ****         rgblight_config.hue = hue;
 532:quantum/rgblight.c ****         rgblight_config.sat = sat;
 533:quantum/rgblight.c ****         rgblight_config.val = val;
 534:quantum/rgblight.c ****         if (write_to_eeprom) {
 535:quantum/rgblight.c ****             eeconfig_update_rgblight(rgblight_config.raw);
 536:quantum/rgblight.c ****             dprintf("rgblight set hsv [EEPROM]: %u,%u,%u\n", rgblight_config.hue, rgblight_config.s
 537:quantum/rgblight.c ****         } else {
 538:quantum/rgblight.c ****             dprintf("rgblight set hsv [NOEEPROM]: %u,%u,%u\n", rgblight_config.hue, rgblight_config
 539:quantum/rgblight.c ****         }
 540:quantum/rgblight.c ****     }
 541:quantum/rgblight.c **** }
 542:quantum/rgblight.c **** 
 543:quantum/rgblight.c **** void rgblight_sethsv(uint8_t hue, uint8_t sat, uint8_t val) { rgblight_sethsv_eeprom_helper(hue, sa
 544:quantum/rgblight.c **** 
 545:quantum/rgblight.c **** void rgblight_sethsv_noeeprom(uint8_t hue, uint8_t sat, uint8_t val) { rgblight_sethsv_eeprom_helpe
 546:quantum/rgblight.c **** 
 547:quantum/rgblight.c **** uint8_t rgblight_get_speed(void) { return rgblight_config.speed; }
 548:quantum/rgblight.c **** 
 549:quantum/rgblight.c **** void rgblight_set_speed_eeprom_helper(uint8_t speed, bool write_to_eeprom) {
 550:quantum/rgblight.c ****     rgblight_config.speed = speed;
 551:quantum/rgblight.c ****     if (write_to_eeprom) {
 552:quantum/rgblight.c ****         eeconfig_update_rgblight(rgblight_config.raw);  // EECONFIG needs to be increased to suppor
 553:quantum/rgblight.c ****         dprintf("rgblight set speed [EEPROM]: %u\n", rgblight_config.speed);
 554:quantum/rgblight.c ****     } else {
 555:quantum/rgblight.c ****         dprintf("rgblight set speed [NOEEPROM]: %u\n", rgblight_config.speed);
 556:quantum/rgblight.c ****     }
 557:quantum/rgblight.c **** }
 558:quantum/rgblight.c **** 
 559:quantum/rgblight.c **** void rgblight_set_speed(uint8_t speed) { rgblight_set_speed_eeprom_helper(speed, true); }
 560:quantum/rgblight.c **** 
 561:quantum/rgblight.c **** void rgblight_set_speed_noeeprom(uint8_t speed) { rgblight_set_speed_eeprom_helper(speed, false); }
 562:quantum/rgblight.c **** 
 563:quantum/rgblight.c **** uint8_t rgblight_get_hue(void) { return rgblight_config.hue; }
 564:quantum/rgblight.c **** 
 565:quantum/rgblight.c **** uint8_t rgblight_get_sat(void) { return rgblight_config.sat; }
 566:quantum/rgblight.c **** 
 567:quantum/rgblight.c **** uint8_t rgblight_get_val(void) { return rgblight_config.val; }
 568:quantum/rgblight.c **** 
 569:quantum/rgblight.c **** HSV rgblight_get_hsv(void) { return (HSV){rgblight_config.hue, rgblight_config.sat, rgblight_config
 570:quantum/rgblight.c **** 
 571:quantum/rgblight.c **** void rgblight_setrgb(uint8_t r, uint8_t g, uint8_t b) {
 572:quantum/rgblight.c ****     if (!rgblight_config.enable) {
 573:quantum/rgblight.c ****         return;
 574:quantum/rgblight.c ****     }
 575:quantum/rgblight.c **** 
 576:quantum/rgblight.c ****     for (uint8_t i = rgblight_ranges.effect_start_pos; i < rgblight_ranges.effect_end_pos; i++) {
 577:quantum/rgblight.c ****         led[i].r = r;
 578:quantum/rgblight.c ****         led[i].g = g;
 579:quantum/rgblight.c ****         led[i].b = b;
 580:quantum/rgblight.c **** #ifdef RGBW
 581:quantum/rgblight.c ****         led[i].w = 0;
 582:quantum/rgblight.c **** #endif
 583:quantum/rgblight.c ****     }
 584:quantum/rgblight.c ****     rgblight_set();
 585:quantum/rgblight.c **** }
 586:quantum/rgblight.c **** 
 587:quantum/rgblight.c **** void rgblight_setrgb_at(uint8_t r, uint8_t g, uint8_t b, uint8_t index) {
 588:quantum/rgblight.c ****     if (!rgblight_config.enable || index >= RGBLED_NUM) {
 589:quantum/rgblight.c ****         return;
 590:quantum/rgblight.c ****     }
 591:quantum/rgblight.c **** 
 592:quantum/rgblight.c ****     led[index].r = r;
 593:quantum/rgblight.c ****     led[index].g = g;
 594:quantum/rgblight.c ****     led[index].b = b;
 595:quantum/rgblight.c **** #ifdef RGBW
 596:quantum/rgblight.c ****     led[index].w = 0;
 597:quantum/rgblight.c **** #endif
 598:quantum/rgblight.c ****     rgblight_set();
 599:quantum/rgblight.c **** }
 600:quantum/rgblight.c **** 
 601:quantum/rgblight.c **** void rgblight_sethsv_at(uint8_t hue, uint8_t sat, uint8_t val, uint8_t index) {
 602:quantum/rgblight.c ****     if (!rgblight_config.enable) {
 603:quantum/rgblight.c ****         return;
 604:quantum/rgblight.c ****     }
 605:quantum/rgblight.c **** 
 606:quantum/rgblight.c ****     LED_TYPE tmp_led;
 607:quantum/rgblight.c ****     sethsv(hue, sat, val, &tmp_led);
 608:quantum/rgblight.c ****     rgblight_setrgb_at(tmp_led.r, tmp_led.g, tmp_led.b, index);
 609:quantum/rgblight.c **** }
 610:quantum/rgblight.c **** 
 611:quantum/rgblight.c **** #if defined(RGBLIGHT_EFFECT_BREATHING) || defined(RGBLIGHT_EFFECT_RAINBOW_MOOD) || defined(RGBLIGHT
 612:quantum/rgblight.c **** 
 613:quantum/rgblight.c **** static uint8_t get_interval_time(const uint8_t *default_interval_address, uint8_t velocikey_min, ui
 614:quantum/rgblight.c ****     return
 615:quantum/rgblight.c **** #    ifdef VELOCIKEY_ENABLE
 616:quantum/rgblight.c ****         velocikey_enabled() ? velocikey_match_speed(velocikey_min, velocikey_max) :
 617:quantum/rgblight.c **** #    endif
 618:quantum/rgblight.c ****                             pgm_read_byte(default_interval_address);
 619:quantum/rgblight.c **** }
 620:quantum/rgblight.c **** 
 621:quantum/rgblight.c **** #endif
 622:quantum/rgblight.c **** 
 623:quantum/rgblight.c **** void rgblight_setrgb_range(uint8_t r, uint8_t g, uint8_t b, uint8_t start, uint8_t end) {
 624:quantum/rgblight.c ****     if (!rgblight_config.enable || start < 0 || start >= end || end > RGBLED_NUM) {
 625:quantum/rgblight.c ****         return;
 626:quantum/rgblight.c ****     }
 627:quantum/rgblight.c **** 
 628:quantum/rgblight.c ****     for (uint8_t i = start; i < end; i++) {
 629:quantum/rgblight.c ****         led[i].r = r;
 630:quantum/rgblight.c ****         led[i].g = g;
 631:quantum/rgblight.c ****         led[i].b = b;
 632:quantum/rgblight.c **** #ifdef RGBW
 633:quantum/rgblight.c ****         led[i].w = 0;
 634:quantum/rgblight.c **** #endif
 635:quantum/rgblight.c ****     }
 636:quantum/rgblight.c ****     rgblight_set();
 637:quantum/rgblight.c ****     wait_ms(1);
 638:quantum/rgblight.c **** }
 639:quantum/rgblight.c **** 
 640:quantum/rgblight.c **** void rgblight_sethsv_range(uint8_t hue, uint8_t sat, uint8_t val, uint8_t start, uint8_t end) {
 641:quantum/rgblight.c ****     if (!rgblight_config.enable) {
 642:quantum/rgblight.c ****         return;
 643:quantum/rgblight.c ****     }
 644:quantum/rgblight.c **** 
 645:quantum/rgblight.c ****     LED_TYPE tmp_led;
 646:quantum/rgblight.c ****     sethsv(hue, sat, val, &tmp_led);
 647:quantum/rgblight.c ****     rgblight_setrgb_range(tmp_led.r, tmp_led.g, tmp_led.b, start, end);
 648:quantum/rgblight.c **** }
 649:quantum/rgblight.c **** 
 650:quantum/rgblight.c **** #ifndef RGBLIGHT_SPLIT
 651:quantum/rgblight.c **** void rgblight_setrgb_master(uint8_t r, uint8_t g, uint8_t b) { rgblight_setrgb_range(r, g, b, 0, (u
 652:quantum/rgblight.c **** 
 653:quantum/rgblight.c **** void rgblight_setrgb_slave(uint8_t r, uint8_t g, uint8_t b) { rgblight_setrgb_range(r, g, b, (uint8
 654:quantum/rgblight.c **** 
 655:quantum/rgblight.c **** void rgblight_sethsv_master(uint8_t hue, uint8_t sat, uint8_t val) { rgblight_sethsv_range(hue, sat
 656:quantum/rgblight.c **** 
 657:quantum/rgblight.c **** void rgblight_sethsv_slave(uint8_t hue, uint8_t sat, uint8_t val) { rgblight_sethsv_range(hue, sat,
 658:quantum/rgblight.c **** #endif  // ifndef RGBLIGHT_SPLIT
 659:quantum/rgblight.c **** 
 660:quantum/rgblight.c **** #ifdef RGBLIGHT_LAYERS
 661:quantum/rgblight.c **** void rgblight_set_layer_state(uint8_t layer, bool enabled) {
 662:quantum/rgblight.c ****     rgblight_layer_mask_t mask = (rgblight_layer_mask_t)1 << layer;
 663:quantum/rgblight.c ****     if (enabled) {
 664:quantum/rgblight.c ****         rgblight_status.enabled_layer_mask |= mask;
 665:quantum/rgblight.c ****     } else {
 666:quantum/rgblight.c ****         rgblight_status.enabled_layer_mask &= ~mask;
 667:quantum/rgblight.c ****     }
 668:quantum/rgblight.c ****     RGBLIGHT_SPLIT_SET_CHANGE_LAYERS;
 669:quantum/rgblight.c ****     // Static modes don't have a ticker running to update the LEDs
 670:quantum/rgblight.c ****     if (rgblight_status.timer_enabled == false) {
 671:quantum/rgblight.c ****         rgblight_mode_noeeprom(rgblight_config.mode);
 672:quantum/rgblight.c ****     }
 673:quantum/rgblight.c **** 
 674:quantum/rgblight.c **** #    ifdef RGBLIGHT_LAYERS_OVERRIDE_RGB_OFF
 675:quantum/rgblight.c ****     // If not enabled, then nothing else will actually set the LEDs...
 676:quantum/rgblight.c ****     if (!rgblight_config.enable) {
 677:quantum/rgblight.c ****         rgblight_set();
 678:quantum/rgblight.c ****     }
 679:quantum/rgblight.c **** #    endif
 680:quantum/rgblight.c **** }
 681:quantum/rgblight.c **** 
 682:quantum/rgblight.c **** bool rgblight_get_layer_state(uint8_t layer) {
 683:quantum/rgblight.c ****     rgblight_layer_mask_t mask = (rgblight_layer_mask_t)1 << layer;
 684:quantum/rgblight.c ****     return (rgblight_status.enabled_layer_mask & mask) != 0;
 685:quantum/rgblight.c **** }
 686:quantum/rgblight.c **** 
 687:quantum/rgblight.c **** // Write any enabled LED layers into the buffer
 688:quantum/rgblight.c **** static void rgblight_layers_write(void) {
 689:quantum/rgblight.c ****     uint8_t i = 0;
 690:quantum/rgblight.c ****     // For each layer
 691:quantum/rgblight.c ****     for (const rgblight_segment_t *const *layer_ptr = rgblight_layers; i < RGBLIGHT_MAX_LAYERS; lay
 692:quantum/rgblight.c ****         if (!rgblight_get_layer_state(i)) {
 693:quantum/rgblight.c ****             continue;  // Layer is disabled
 694:quantum/rgblight.c ****         }
 695:quantum/rgblight.c ****         const rgblight_segment_t *segment_ptr = pgm_read_ptr(layer_ptr);
 696:quantum/rgblight.c ****         if (segment_ptr == NULL) {
 697:quantum/rgblight.c ****             break;  // No more layers
 698:quantum/rgblight.c ****         }
 699:quantum/rgblight.c ****         // For each segment
 700:quantum/rgblight.c ****         while (1) {
 701:quantum/rgblight.c ****             rgblight_segment_t segment;
 702:quantum/rgblight.c ****             memcpy_P(&segment, segment_ptr, sizeof(rgblight_segment_t));
 703:quantum/rgblight.c ****             if (segment.index == RGBLIGHT_END_SEGMENT_INDEX) {
 704:quantum/rgblight.c ****                 break;  // No more segments
 705:quantum/rgblight.c ****             }
 706:quantum/rgblight.c ****             // Write segment.count LEDs
 707:quantum/rgblight.c ****             LED_TYPE *const limit = &led[MIN(segment.index + segment.count, RGBLED_NUM)];
 708:quantum/rgblight.c ****             for (LED_TYPE *led_ptr = &led[segment.index]; led_ptr < limit; led_ptr++) {
 709:quantum/rgblight.c ****                 sethsv(segment.hue, segment.sat, segment.val, led_ptr);
 710:quantum/rgblight.c ****             }
 711:quantum/rgblight.c ****             segment_ptr++;
 712:quantum/rgblight.c ****         }
 713:quantum/rgblight.c ****     }
 714:quantum/rgblight.c **** }
 715:quantum/rgblight.c **** 
 716:quantum/rgblight.c **** #    ifdef RGBLIGHT_LAYER_BLINK
 717:quantum/rgblight.c **** rgblight_layer_mask_t _blinking_layer_mask = 0;
 718:quantum/rgblight.c **** static uint16_t       _repeat_timer;
 719:quantum/rgblight.c **** static uint8_t        _times_remaining;
 720:quantum/rgblight.c **** static uint16_t       _dur;
 721:quantum/rgblight.c **** 
 722:quantum/rgblight.c **** void rgblight_blink_layer(uint8_t layer, uint16_t duration_ms) { rgblight_blink_layer_repeat(layer,
 723:quantum/rgblight.c **** 
 724:quantum/rgblight.c **** void rgblight_blink_layer_repeat(uint8_t layer, uint16_t duration_ms, uint8_t times) {
 725:quantum/rgblight.c ****     _times_remaining = times * 2;
 726:quantum/rgblight.c ****     _dur             = duration_ms;
 727:quantum/rgblight.c **** 
 728:quantum/rgblight.c ****     rgblight_set_layer_state(layer, true);
 729:quantum/rgblight.c ****     _times_remaining--;
 730:quantum/rgblight.c ****     _blinking_layer_mask |= (rgblight_layer_mask_t)1 << layer;
 731:quantum/rgblight.c ****     _repeat_timer = sync_timer_read() + duration_ms;
 732:quantum/rgblight.c **** }
 733:quantum/rgblight.c **** 
 734:quantum/rgblight.c **** void rgblight_blink_layer_repeat_helper(void) {
 735:quantum/rgblight.c ****     if (_blinking_layer_mask != 0 && timer_expired(sync_timer_read(), _repeat_timer)) {
 736:quantum/rgblight.c ****         for (uint8_t layer = 0; layer < RGBLIGHT_MAX_LAYERS; layer++) {
 737:quantum/rgblight.c ****             if ((_blinking_layer_mask & (rgblight_layer_mask_t)1 << layer) != 0 && _times_remaining
 738:quantum/rgblight.c ****                 if (_times_remaining % 2 == 1) {
 739:quantum/rgblight.c ****                     rgblight_set_layer_state(layer, false);
 740:quantum/rgblight.c ****                 } else {
 741:quantum/rgblight.c ****                     rgblight_set_layer_state(layer, true);
 742:quantum/rgblight.c ****                 }
 743:quantum/rgblight.c ****                 _times_remaining--;
 744:quantum/rgblight.c ****                 _repeat_timer = sync_timer_read() + _dur;
 745:quantum/rgblight.c ****             }
 746:quantum/rgblight.c ****         }
 747:quantum/rgblight.c ****         if (_times_remaining <= 0) {
 748:quantum/rgblight.c ****             _blinking_layer_mask = 0;
 749:quantum/rgblight.c ****         }
 750:quantum/rgblight.c ****     }
 751:quantum/rgblight.c **** }
 752:quantum/rgblight.c **** #    endif
 753:quantum/rgblight.c **** 
 754:quantum/rgblight.c **** #endif
 755:quantum/rgblight.c **** 
 756:quantum/rgblight.c **** #ifdef RGBLIGHT_SLEEP
 757:quantum/rgblight.c **** 
 758:quantum/rgblight.c **** void rgblight_suspend(void) {
 759:quantum/rgblight.c ****     rgblight_timer_disable();
 760:quantum/rgblight.c ****     if (!is_suspended) {
 761:quantum/rgblight.c ****         is_suspended        = true;
 762:quantum/rgblight.c ****         pre_suspend_enabled = rgblight_config.enable;
 763:quantum/rgblight.c **** 
 764:quantum/rgblight.c **** #    ifdef RGBLIGHT_LAYER_BLINK
 765:quantum/rgblight.c ****         // make sure any layer blinks don't come back after suspend
 766:quantum/rgblight.c ****         rgblight_status.enabled_layer_mask &= ~_blinking_layer_mask;
 767:quantum/rgblight.c ****         _blinking_layer_mask = 0;
 768:quantum/rgblight.c **** #    endif
 769:quantum/rgblight.c **** 
 770:quantum/rgblight.c ****         rgblight_disable_noeeprom();
 771:quantum/rgblight.c ****     }
 772:quantum/rgblight.c **** }
 773:quantum/rgblight.c **** 
 774:quantum/rgblight.c **** void rgblight_wakeup(void) {
 775:quantum/rgblight.c ****     is_suspended = false;
 776:quantum/rgblight.c **** 
 777:quantum/rgblight.c ****     if (pre_suspend_enabled) {
 778:quantum/rgblight.c ****         rgblight_enable_noeeprom();
 779:quantum/rgblight.c ****     }
 780:quantum/rgblight.c **** #    ifdef RGBLIGHT_LAYERS_OVERRIDE_RGB_OFF
 781:quantum/rgblight.c ****     // Need this or else the LEDs won't be set
 782:quantum/rgblight.c ****     else if (rgblight_status.enabled_layer_mask != 0) {
 783:quantum/rgblight.c ****         rgblight_set();
 784:quantum/rgblight.c ****     }
 785:quantum/rgblight.c **** #    endif
 786:quantum/rgblight.c **** 
 787:quantum/rgblight.c ****     rgblight_timer_enable();
 788:quantum/rgblight.c **** }
 789:quantum/rgblight.c **** 
 790:quantum/rgblight.c **** #endif
 791:quantum/rgblight.c **** 
 792:quantum/rgblight.c **** __attribute__((weak)) void rgblight_call_driver(LED_TYPE *start_led, uint8_t num_leds) { ws2812_set
 793:quantum/rgblight.c **** 
 794:quantum/rgblight.c **** #ifndef RGBLIGHT_CUSTOM_DRIVER
 795:quantum/rgblight.c **** 
 796:quantum/rgblight.c **** void rgblight_set(void) {
 797:quantum/rgblight.c ****     LED_TYPE *start_led;
 798:quantum/rgblight.c ****     uint8_t   num_leds = rgblight_ranges.clipping_num_leds;
 799:quantum/rgblight.c **** 
 800:quantum/rgblight.c ****     if (!rgblight_config.enable) {
 801:quantum/rgblight.c ****         for (uint8_t i = rgblight_ranges.effect_start_pos; i < rgblight_ranges.effect_end_pos; i++)
 802:quantum/rgblight.c ****             led[i].r = 0;
 803:quantum/rgblight.c ****             led[i].g = 0;
 804:quantum/rgblight.c ****             led[i].b = 0;
 805:quantum/rgblight.c **** #    ifdef RGBW
 806:quantum/rgblight.c ****             led[i].w = 0;
 807:quantum/rgblight.c **** #    endif
 808:quantum/rgblight.c ****         }
 809:quantum/rgblight.c ****     }
 810:quantum/rgblight.c **** 
 811:quantum/rgblight.c **** #    ifdef RGBLIGHT_LAYERS
 812:quantum/rgblight.c ****     if (rgblight_layers != NULL
 813:quantum/rgblight.c **** #        if !defined(RGBLIGHT_LAYERS_OVERRIDE_RGB_OFF)
 814:quantum/rgblight.c ****         && rgblight_config.enable
 815:quantum/rgblight.c **** #        elif defined(RGBLIGHT_SLEEP)
 816:quantum/rgblight.c ****         && !is_suspended
 817:quantum/rgblight.c **** #        endif
 818:quantum/rgblight.c ****     ) {
 819:quantum/rgblight.c ****         rgblight_layers_write();
 820:quantum/rgblight.c ****     }
 821:quantum/rgblight.c **** #    endif
 822:quantum/rgblight.c **** 
 823:quantum/rgblight.c **** #    ifdef RGBLIGHT_LED_MAP
 824:quantum/rgblight.c ****     LED_TYPE led0[RGBLED_NUM];
 825:quantum/rgblight.c ****     for (uint8_t i = 0; i < RGBLED_NUM; i++) {
 826:quantum/rgblight.c ****         led0[i] = led[pgm_read_byte(&led_map[i])];
 827:quantum/rgblight.c ****     }
 828:quantum/rgblight.c ****     start_led = led0 + rgblight_ranges.clipping_start_pos;
 829:quantum/rgblight.c **** #    else
 830:quantum/rgblight.c ****     start_led = led + rgblight_ranges.clipping_start_pos;
 831:quantum/rgblight.c **** #    endif
 832:quantum/rgblight.c **** 
 833:quantum/rgblight.c **** #    ifdef RGBW
 834:quantum/rgblight.c ****     for (uint8_t i = 0; i < num_leds; i++) {
 835:quantum/rgblight.c ****         convert_rgb_to_rgbw(&start_led[i]);
 836:quantum/rgblight.c ****     }
 837:quantum/rgblight.c **** #    endif
 838:quantum/rgblight.c ****     rgblight_call_driver(start_led, num_leds);
 839:quantum/rgblight.c **** }
 840:quantum/rgblight.c **** #endif
 841:quantum/rgblight.c **** 
 842:quantum/rgblight.c **** #ifdef RGBLIGHT_SPLIT
 843:quantum/rgblight.c **** /* for split keyboard master side */
 844:quantum/rgblight.c **** uint8_t rgblight_get_change_flags(void) { return rgblight_status.change_flags; }
 845:quantum/rgblight.c **** 
 846:quantum/rgblight.c **** void rgblight_clear_change_flags(void) { rgblight_status.change_flags = 0; }
 847:quantum/rgblight.c **** 
 848:quantum/rgblight.c **** void rgblight_get_syncinfo(rgblight_syncinfo_t *syncinfo) {
 849:quantum/rgblight.c ****     syncinfo->config = rgblight_config;
 850:quantum/rgblight.c ****     syncinfo->status = rgblight_status;
 851:quantum/rgblight.c **** }
 852:quantum/rgblight.c **** 
 853:quantum/rgblight.c **** /* for split keyboard slave side */
 854:quantum/rgblight.c **** void rgblight_update_sync(rgblight_syncinfo_t *syncinfo, bool write_to_eeprom) {
 855:quantum/rgblight.c **** #    ifdef RGBLIGHT_LAYERS
 856:quantum/rgblight.c ****     if (syncinfo->status.change_flags & RGBLIGHT_STATUS_CHANGE_LAYERS) {
 857:quantum/rgblight.c ****         rgblight_status.enabled_layer_mask = syncinfo->status.enabled_layer_mask;
 858:quantum/rgblight.c ****     }
 859:quantum/rgblight.c **** #    endif
 860:quantum/rgblight.c ****     if (syncinfo->status.change_flags & RGBLIGHT_STATUS_CHANGE_MODE) {
 861:quantum/rgblight.c ****         if (syncinfo->config.enable) {
 862:quantum/rgblight.c ****             rgblight_config.enable = 1;  // == rgblight_enable_noeeprom();
 863:quantum/rgblight.c ****             rgblight_mode_eeprom_helper(syncinfo->config.mode, write_to_eeprom);
 864:quantum/rgblight.c ****         } else {
 865:quantum/rgblight.c ****             rgblight_disable_noeeprom();
 866:quantum/rgblight.c ****         }
 867:quantum/rgblight.c ****     }
 868:quantum/rgblight.c ****     if (syncinfo->status.change_flags & RGBLIGHT_STATUS_CHANGE_HSVS) {
 869:quantum/rgblight.c ****         rgblight_sethsv_eeprom_helper(syncinfo->config.hue, syncinfo->config.sat, syncinfo->config.
 870:quantum/rgblight.c ****         // rgblight_config.speed = config->speed; // NEED???
 871:quantum/rgblight.c ****     }
 872:quantum/rgblight.c **** #    ifdef RGBLIGHT_USE_TIMER
 873:quantum/rgblight.c ****     if (syncinfo->status.change_flags & RGBLIGHT_STATUS_CHANGE_TIMER) {
 874:quantum/rgblight.c ****         if (syncinfo->status.timer_enabled) {
 875:quantum/rgblight.c ****             rgblight_timer_enable();
 876:quantum/rgblight.c ****         } else {
 877:quantum/rgblight.c ****             rgblight_timer_disable();
 878:quantum/rgblight.c ****         }
 879:quantum/rgblight.c ****     }
 880:quantum/rgblight.c **** #        ifndef RGBLIGHT_SPLIT_NO_ANIMATION_SYNC
 881:quantum/rgblight.c ****     if (syncinfo->status.change_flags & RGBLIGHT_STATUS_ANIMATION_TICK) {
 882:quantum/rgblight.c ****         animation_status.restart = true;
 883:quantum/rgblight.c ****     }
 884:quantum/rgblight.c **** #        endif /* RGBLIGHT_SPLIT_NO_ANIMATION_SYNC */
 885:quantum/rgblight.c **** #    endif /* RGBLIGHT_USE_TIMER */
 886:quantum/rgblight.c **** }
 887:quantum/rgblight.c **** #endif /* RGBLIGHT_SPLIT */
 888:quantum/rgblight.c **** 
 889:quantum/rgblight.c **** #ifdef RGBLIGHT_USE_TIMER
 890:quantum/rgblight.c **** 
 891:quantum/rgblight.c **** typedef void (*effect_func_t)(animation_status_t *anim);
 892:quantum/rgblight.c **** 
 893:quantum/rgblight.c **** // Animation timer -- use system timer (AVR Timer0)
 894:quantum/rgblight.c **** void rgblight_timer_init(void) {
 895:quantum/rgblight.c ****     rgblight_status.timer_enabled = false;
 896:quantum/rgblight.c ****     RGBLIGHT_SPLIT_SET_CHANGE_TIMER_ENABLE;
 897:quantum/rgblight.c **** }
 898:quantum/rgblight.c **** void rgblight_timer_enable(void) {
 899:quantum/rgblight.c ****     if (!is_static_effect(rgblight_config.mode)) {
 900:quantum/rgblight.c ****         rgblight_status.timer_enabled = true;
 901:quantum/rgblight.c ****     }
 902:quantum/rgblight.c ****     animation_status.last_timer = sync_timer_read();
 903:quantum/rgblight.c ****     RGBLIGHT_SPLIT_SET_CHANGE_TIMER_ENABLE;
 904:quantum/rgblight.c ****     dprintf("rgblight timer enabled.\n");
 905:quantum/rgblight.c **** }
 906:quantum/rgblight.c **** void rgblight_timer_disable(void) {
 907:quantum/rgblight.c ****     rgblight_status.timer_enabled = false;
 908:quantum/rgblight.c ****     RGBLIGHT_SPLIT_SET_CHANGE_TIMER_ENABLE;
 909:quantum/rgblight.c ****     dprintf("rgblight timer disable.\n");
 910:quantum/rgblight.c **** }
 911:quantum/rgblight.c **** void rgblight_timer_toggle(void) {
 912:quantum/rgblight.c ****     dprintf("rgblight timer toggle.\n");
 913:quantum/rgblight.c ****     if (rgblight_status.timer_enabled) {
 914:quantum/rgblight.c ****         rgblight_timer_disable();
 915:quantum/rgblight.c ****     } else {
 916:quantum/rgblight.c ****         rgblight_timer_enable();
 917:quantum/rgblight.c ****     }
 918:quantum/rgblight.c **** }
 919:quantum/rgblight.c **** 
 920:quantum/rgblight.c **** void rgblight_show_solid_color(uint8_t r, uint8_t g, uint8_t b) {
 921:quantum/rgblight.c ****     rgblight_enable();
 922:quantum/rgblight.c ****     rgblight_mode(RGBLIGHT_MODE_STATIC_LIGHT);
 923:quantum/rgblight.c ****     rgblight_setrgb(r, g, b);
 924:quantum/rgblight.c **** }
 925:quantum/rgblight.c **** 
 926:quantum/rgblight.c **** static void rgblight_effect_dummy(animation_status_t *anim) {
  16               		.loc 1 926 61 view -0
  17               		.cfi_startproc
  18               	/* prologue: function */
  19               	/* frame size = 0 */
  20               	/* stack size = 0 */
  21               	.L__stack_usage = 0
 927:quantum/rgblight.c ****     // do nothing
 928:quantum/rgblight.c ****     /********
 929:quantum/rgblight.c ****     dprintf("rgblight_task() what happened?\n");
 930:quantum/rgblight.c ****     dprintf("is_static_effect %d\n", is_static_effect(rgblight_config.mode));
 931:quantum/rgblight.c ****     dprintf("mode = %d, base_mode = %d, timer_enabled %d, ",
 932:quantum/rgblight.c ****             rgblight_config.mode, rgblight_status.base_mode,
 933:quantum/rgblight.c ****             rgblight_status.timer_enabled);
 934:quantum/rgblight.c ****     dprintf("last_timer = %d\n",anim->last_timer);
 935:quantum/rgblight.c ****     **/
 936:quantum/rgblight.c **** }
  22               		.loc 1 936 1 view .LVU1
  23               	/* epilogue start */
  24 0000 0895      		ret
  25               		.cfi_endproc
  26               	.LFE172:
  28               		.section	.text.rgblight_set_clipping_range,"ax",@progbits
  29               	.global	rgblight_set_clipping_range
  31               	rgblight_set_clipping_range:
  32               	.LVL1:
  33               	.LFB84:
 133:quantum/rgblight.c ****     rgblight_ranges.clipping_start_pos = start_pos;
  34               		.loc 1 133 71 view -0
  35               		.cfi_startproc
  36               	/* prologue: function */
  37               	/* frame size = 0 */
  38               	/* stack size = 0 */
  39               	.L__stack_usage = 0
 134:quantum/rgblight.c ****     rgblight_ranges.clipping_num_leds  = num_leds;
  40               		.loc 1 134 5 view .LVU3
 134:quantum/rgblight.c ****     rgblight_ranges.clipping_num_leds  = num_leds;
  41               		.loc 1 134 40 is_stmt 0 view .LVU4
  42 0000 E0E0      		ldi r30,lo8(rgblight_ranges)
  43 0002 F0E0      		ldi r31,hi8(rgblight_ranges)
  44 0004 8083      		st Z,r24
 135:quantum/rgblight.c **** }
  45               		.loc 1 135 5 is_stmt 1 view .LVU5
 135:quantum/rgblight.c **** }
  46               		.loc 1 135 40 is_stmt 0 view .LVU6
  47 0006 6183      		std Z+1,r22
  48               	/* epilogue start */
 136:quantum/rgblight.c **** 
  49               		.loc 1 136 1 view .LVU7
  50 0008 0895      		ret
  51               		.cfi_endproc
  52               	.LFE84:
  54               		.section	.text.rgblight_set_effect_range,"ax",@progbits
  55               	.global	rgblight_set_effect_range
  57               	rgblight_set_effect_range:
  58               	.LVL2:
  59               	.LFB85:
 138:quantum/rgblight.c ****     if (start_pos >= RGBLED_NUM) return;
  60               		.loc 1 138 69 is_stmt 1 view -0
  61               		.cfi_startproc
  62               	/* prologue: function */
  63               	/* frame size = 0 */
  64               	/* stack size = 0 */
  65               	.L__stack_usage = 0
 139:quantum/rgblight.c ****     if (start_pos + num_leds > RGBLED_NUM) return;
  66               		.loc 1 139 5 view .LVU9
 139:quantum/rgblight.c ****     if (start_pos + num_leds > RGBLED_NUM) return;
  67               		.loc 1 139 8 is_stmt 0 view .LVU10
  68 0000 8830      		cpi r24,lo8(8)
  69 0002 00F4      		brsh .L3
 140:quantum/rgblight.c ****     rgblight_ranges.effect_start_pos = start_pos;
  70               		.loc 1 140 5 is_stmt 1 view .LVU11
 140:quantum/rgblight.c ****     rgblight_ranges.effect_start_pos = start_pos;
  71               		.loc 1 140 19 is_stmt 0 view .LVU12
  72 0004 482F      		mov r20,r24
  73 0006 460F      		add r20,r22
  74 0008 5527      		clr r21
  75 000a 551F      		rol r21
 140:quantum/rgblight.c ****     rgblight_ranges.effect_start_pos = start_pos;
  76               		.loc 1 140 8 view .LVU13
  77 000c 4930      		cpi r20,9
  78 000e 5105      		cpc r21,__zero_reg__
  79 0010 04F4      		brge .L3
 141:quantum/rgblight.c ****     rgblight_ranges.effect_end_pos   = start_pos + num_leds;
  80               		.loc 1 141 5 is_stmt 1 view .LVU14
 141:quantum/rgblight.c ****     rgblight_ranges.effect_end_pos   = start_pos + num_leds;
  81               		.loc 1 141 38 is_stmt 0 view .LVU15
  82 0012 8093 0000 		sts rgblight_ranges+2,r24
 142:quantum/rgblight.c ****     rgblight_ranges.effect_num_leds  = num_leds;
  83               		.loc 1 142 5 is_stmt 1 view .LVU16
 142:quantum/rgblight.c ****     rgblight_ranges.effect_num_leds  = num_leds;
  84               		.loc 1 142 50 is_stmt 0 view .LVU17
  85 0016 860F      		add r24,r22
  86               	.LVL3:
 142:quantum/rgblight.c ****     rgblight_ranges.effect_num_leds  = num_leds;
  87               		.loc 1 142 38 view .LVU18
  88 0018 8093 0000 		sts rgblight_ranges+3,r24
 143:quantum/rgblight.c **** }
  89               		.loc 1 143 5 is_stmt 1 view .LVU19
 143:quantum/rgblight.c **** }
  90               		.loc 1 143 38 is_stmt 0 view .LVU20
  91 001c 6093 0000 		sts rgblight_ranges+4,r22
  92               	.LVL4:
  93               	.L3:
  94               	/* epilogue start */
 144:quantum/rgblight.c **** 
  95               		.loc 1 144 1 view .LVU21
  96 0020 0895      		ret
  97               		.cfi_endproc
  98               	.LFE85:
 100               		.section	.text.rgblight_hsv_to_rgb,"ax",@progbits
 101               		.weak	rgblight_hsv_to_rgb
 103               	rgblight_hsv_to_rgb:
 104               	.LVL5:
 105               	.LFB86:
 146:quantum/rgblight.c **** 
 106               		.loc 1 146 56 is_stmt 1 view -0
 107               		.cfi_startproc
 108               	/* prologue: function */
 109               	/* frame size = 0 */
 110               	/* stack size = 0 */
 111               	.L__stack_usage = 0
 146:quantum/rgblight.c **** 
 112               		.loc 1 146 58 view .LVU23
 146:quantum/rgblight.c **** 
 113               		.loc 1 146 65 is_stmt 0 view .LVU24
 114 0000 0C94 0000 		jmp hsv_to_rgb
 115               	.LVL6:
 146:quantum/rgblight.c **** 
 116               		.loc 1 146 65 view .LVU25
 117               		.cfi_endproc
 118               	.LFE86:
 120               		.section	.text.sethsv_raw,"ax",@progbits
 121               	.global	sethsv_raw
 123               	sethsv_raw:
 124               	.LVL7:
 125               	.LFB87:
 148:quantum/rgblight.c ****     HSV hsv = {hue, sat, val};
 126               		.loc 1 148 72 is_stmt 1 view -0
 127               		.cfi_startproc
 148:quantum/rgblight.c ****     HSV hsv = {hue, sat, val};
 128               		.loc 1 148 72 is_stmt 0 view .LVU27
 129 0000 CF93      		push r28
 130               	.LCFI0:
 131               		.cfi_def_cfa_offset 3
 132               		.cfi_offset 28, -2
 133 0002 DF93      		push r29
 134               	.LCFI1:
 135               		.cfi_def_cfa_offset 4
 136               		.cfi_offset 29, -3
 137               	/* prologue: function */
 138               	/* frame size = 0 */
 139               	/* stack size = 2 */
 140               	.L__stack_usage = 2
 141 0004 762F      		mov r23,r22
 142 0006 E901      		movw r28,r18
 149:quantum/rgblight.c ****     RGB rgb = rgblight_hsv_to_rgb(hsv);
 143               		.loc 1 149 5 is_stmt 1 view .LVU28
 150:quantum/rgblight.c ****     setrgb(rgb.r, rgb.g, rgb.b, led1);
 144               		.loc 1 150 5 view .LVU29
 150:quantum/rgblight.c ****     setrgb(rgb.r, rgb.g, rgb.b, led1);
 145               		.loc 1 150 15 is_stmt 0 view .LVU30
 146 0008 682F      		mov r22,r24
 147               	.LVL8:
 150:quantum/rgblight.c ****     setrgb(rgb.r, rgb.g, rgb.b, led1);
 148               		.loc 1 150 15 view .LVU31
 149 000a 842F      		mov r24,r20
 150               	.LVL9:
 150:quantum/rgblight.c ****     setrgb(rgb.r, rgb.g, rgb.b, led1);
 151               		.loc 1 150 15 view .LVU32
 152 000c 0E94 0000 		call rgblight_hsv_to_rgb
 153               	.LVL10:
 151:quantum/rgblight.c **** }
 154               		.loc 1 151 5 is_stmt 1 view .LVU33
 155               	.LBB20:
 156               	.LBI20:
 156:quantum/rgblight.c ****     led1->r = r;
 157               		.loc 1 156 6 view .LVU34
 158               	.LBB21:
 157:quantum/rgblight.c ****     led1->g = g;
 159               		.loc 1 157 5 view .LVU35
 157:quantum/rgblight.c ****     led1->g = g;
 160               		.loc 1 157 13 is_stmt 0 view .LVU36
 161 0010 7983      		std Y+1,r23
 158:quantum/rgblight.c ****     led1->b = b;
 162               		.loc 1 158 5 is_stmt 1 view .LVU37
 158:quantum/rgblight.c ****     led1->b = b;
 163               		.loc 1 158 13 is_stmt 0 view .LVU38
 164 0012 6883      		st Y,r22
 159:quantum/rgblight.c **** #ifdef RGBW
 165               		.loc 1 159 5 is_stmt 1 view .LVU39
 159:quantum/rgblight.c **** #ifdef RGBW
 166               		.loc 1 159 13 is_stmt 0 view .LVU40
 167 0014 8A83      		std Y+2,r24
 168               	.LVL11:
 169               	/* epilogue start */
 159:quantum/rgblight.c **** #ifdef RGBW
 170               		.loc 1 159 13 view .LVU41
 171               	.LBE21:
 172               	.LBE20:
 152:quantum/rgblight.c **** 
 173               		.loc 1 152 1 view .LVU42
 174 0016 DF91      		pop r29
 175 0018 CF91      		pop r28
 176               	.LVL12:
 152:quantum/rgblight.c **** 
 177               		.loc 1 152 1 view .LVU43
 178 001a 0895      		ret
 179               		.cfi_endproc
 180               	.LFE87:
 182               		.section	.text.sethsv,"ax",@progbits
 183               	.global	sethsv
 185               	sethsv:
 186               	.LVL13:
 187               	.LFB88:
 154:quantum/rgblight.c **** 
 188               		.loc 1 154 68 is_stmt 1 view -0
 189               		.cfi_startproc
 190               	/* prologue: function */
 191               	/* frame size = 0 */
 192               	/* stack size = 0 */
 193               	.L__stack_usage = 0
 154:quantum/rgblight.c **** 
 194               		.loc 1 154 70 view .LVU45
 195 0000 0C94 0000 		jmp sethsv_raw
 196               	.LVL14:
 154:quantum/rgblight.c **** 
 197               		.loc 1 154 70 is_stmt 0 view .LVU46
 198               		.cfi_endproc
 199               	.LFE88:
 201               		.section	.text.setrgb,"ax",@progbits
 202               	.global	setrgb
 204               	setrgb:
 205               	.LVL15:
 206               	.LFB89:
 156:quantum/rgblight.c ****     led1->r = r;
 207               		.loc 1 156 62 is_stmt 1 view -0
 208               		.cfi_startproc
 209               	/* prologue: function */
 210               	/* frame size = 0 */
 211               	/* stack size = 0 */
 212               	.L__stack_usage = 0
 156:quantum/rgblight.c ****     led1->r = r;
 213               		.loc 1 156 62 is_stmt 0 view .LVU48
 214 0000 F901      		movw r30,r18
 157:quantum/rgblight.c ****     led1->g = g;
 215               		.loc 1 157 5 is_stmt 1 view .LVU49
 157:quantum/rgblight.c ****     led1->g = g;
 216               		.loc 1 157 13 is_stmt 0 view .LVU50
 217 0002 8183      		std Z+1,r24
 158:quantum/rgblight.c ****     led1->b = b;
 218               		.loc 1 158 5 is_stmt 1 view .LVU51
 158:quantum/rgblight.c ****     led1->b = b;
 219               		.loc 1 158 13 is_stmt 0 view .LVU52
 220 0004 6083      		st Z,r22
 159:quantum/rgblight.c **** #ifdef RGBW
 221               		.loc 1 159 5 is_stmt 1 view .LVU53
 159:quantum/rgblight.c **** #ifdef RGBW
 222               		.loc 1 159 13 is_stmt 0 view .LVU54
 223 0006 4283      		std Z+2,r20
 224               	/* epilogue start */
 163:quantum/rgblight.c **** 
 225               		.loc 1 163 1 view .LVU55
 226 0008 0895      		ret
 227               		.cfi_endproc
 228               	.LFE89:
 230               		.section	.text.rgblight_check_config,"ax",@progbits
 231               	.global	rgblight_check_config
 233               	rgblight_check_config:
 234               	.LFB90:
 165:quantum/rgblight.c ****     /* Add some out of bound checks for RGB light config */
 235               		.loc 1 165 34 is_stmt 1 view -0
 236               		.cfi_startproc
 237               	/* prologue: function */
 238               	/* frame size = 0 */
 239               	/* stack size = 0 */
 240               	.L__stack_usage = 0
 168:quantum/rgblight.c ****         rgblight_config.mode = RGBLIGHT_MODE_STATIC_LIGHT;
 241               		.loc 1 168 5 view .LVU57
 168:quantum/rgblight.c ****         rgblight_config.mode = RGBLIGHT_MODE_STATIC_LIGHT;
 242               		.loc 1 168 30 is_stmt 0 view .LVU58
 243 0000 8091 0000 		lds r24,rgblight_config
 244 0004 982F      		mov r25,r24
 245 0006 9E7F      		andi r25,lo8(-2)
 168:quantum/rgblight.c ****         rgblight_config.mode = RGBLIGHT_MODE_STATIC_LIGHT;
 246               		.loc 1 168 8 view .LVU59
 247 0008 01F4      		brne .L10
 169:quantum/rgblight.c ****     } else if (rgblight_config.mode > RGBLIGHT_MODES) {
 248               		.loc 1 169 9 is_stmt 1 view .LVU60
 169:quantum/rgblight.c ****     } else if (rgblight_config.mode > RGBLIGHT_MODES) {
 249               		.loc 1 169 30 is_stmt 0 view .LVU61
 250 000a 8170      		andi r24,lo8(1)
 251 000c 8260      		ori r24,lo8(2)
 252               	.L12:
 171:quantum/rgblight.c ****     }
 253               		.loc 1 171 30 view .LVU62
 254 000e 8093 0000 		sts rgblight_config,r24
 174:quantum/rgblight.c ****         rgblight_config.val = RGBLIGHT_LIMIT_VAL;
 255               		.loc 1 174 5 is_stmt 1 view .LVU63
 256               	.L9:
 257               	/* epilogue start */
 177:quantum/rgblight.c **** 
 258               		.loc 1 177 1 is_stmt 0 view .LVU64
 259 0012 0895      		ret
 260               	.L10:
 170:quantum/rgblight.c ****         rgblight_config.mode = RGBLIGHT_MODES;
 261               		.loc 1 170 12 is_stmt 1 view .LVU65
 170:quantum/rgblight.c ****         rgblight_config.mode = RGBLIGHT_MODES;
 262               		.loc 1 170 15 is_stmt 0 view .LVU66
 263 0014 8635      		cpi r24,lo8(86)
 264 0016 00F0      		brlo .L9
 171:quantum/rgblight.c ****     }
 265               		.loc 1 171 9 is_stmt 1 view .LVU67
 171:quantum/rgblight.c ****     }
 266               		.loc 1 171 30 is_stmt 0 view .LVU68
 267 0018 8170      		andi r24,lo8(1)
 268 001a 8465      		ori r24,lo8(84)
 269 001c 00C0      		rjmp .L12
 270               		.cfi_endproc
 271               	.LFE90:
 273               		.section	.text.eeconfig_read_rgblight,"ax",@progbits
 274               	.global	eeconfig_read_rgblight
 276               	eeconfig_read_rgblight:
 277               	.LFB91:
 179:quantum/rgblight.c **** #ifdef EEPROM_ENABLE
 278               		.loc 1 179 39 is_stmt 1 view -0
 279               		.cfi_startproc
 280               	/* prologue: function */
 281               	/* frame size = 0 */
 282               	/* stack size = 0 */
 283               	.L__stack_usage = 0
 181:quantum/rgblight.c **** #else
 284               		.loc 1 181 5 view .LVU70
 181:quantum/rgblight.c **** #else
 285               		.loc 1 181 12 is_stmt 0 view .LVU71
 286 0000 88E0      		ldi r24,lo8(8)
 287 0002 90E0      		ldi r25,0
 288 0004 0C94 0000 		jmp eeprom_read_dword
 289               	.LVL16:
 290               		.cfi_endproc
 291               	.LFE91:
 293               		.section	.text.eeconfig_update_rgblight,"ax",@progbits
 294               	.global	eeconfig_update_rgblight
 296               	eeconfig_update_rgblight:
 297               	.LVL17:
 298               	.LFB92:
 187:quantum/rgblight.c **** #ifdef EEPROM_ENABLE
 299               		.loc 1 187 45 is_stmt 1 view -0
 300               		.cfi_startproc
 187:quantum/rgblight.c **** #ifdef EEPROM_ENABLE
 301               		.loc 1 187 45 is_stmt 0 view .LVU73
 302 0000 CF92      		push r12
 303               	.LCFI2:
 304               		.cfi_def_cfa_offset 3
 305               		.cfi_offset 12, -2
 306 0002 DF92      		push r13
 307               	.LCFI3:
 308               		.cfi_def_cfa_offset 4
 309               		.cfi_offset 13, -3
 310 0004 EF92      		push r14
 311               	.LCFI4:
 312               		.cfi_def_cfa_offset 5
 313               		.cfi_offset 14, -4
 314 0006 FF92      		push r15
 315               	.LCFI5:
 316               		.cfi_def_cfa_offset 6
 317               		.cfi_offset 15, -5
 318               	/* prologue: function */
 319               	/* frame size = 0 */
 320               	/* stack size = 4 */
 321               	.L__stack_usage = 4
 322 0008 6B01      		movw r12,r22
 323 000a 7C01      		movw r14,r24
 189:quantum/rgblight.c ****     eeprom_update_dword(EECONFIG_RGBLIGHT, val);
 324               		.loc 1 189 5 is_stmt 1 view .LVU74
 325 000c 0E94 0000 		call rgblight_check_config
 326               	.LVL18:
 190:quantum/rgblight.c **** #endif
 327               		.loc 1 190 5 view .LVU75
 328 0010 B701      		movw r22,r14
 329 0012 A601      		movw r20,r12
 330 0014 88E0      		ldi r24,lo8(8)
 331 0016 90E0      		ldi r25,0
 332               	/* epilogue start */
 192:quantum/rgblight.c **** 
 333               		.loc 1 192 1 is_stmt 0 view .LVU76
 334 0018 FF90      		pop r15
 335 001a EF90      		pop r14
 336 001c DF90      		pop r13
 337 001e CF90      		pop r12
 190:quantum/rgblight.c **** #endif
 338               		.loc 1 190 5 view .LVU77
 339 0020 0C94 0000 		jmp eeprom_update_dword
 340               	.LVL19:
 341               		.cfi_endproc
 342               	.LFE92:
 344               		.section	.text.eeconfig_update_rgblight_current,"ax",@progbits
 345               	.global	eeconfig_update_rgblight_current
 347               	eeconfig_update_rgblight_current:
 348               	.LFB93:
 194:quantum/rgblight.c **** 
 349               		.loc 1 194 45 is_stmt 1 view -0
 350               		.cfi_startproc
 351               	/* prologue: function */
 352               	/* frame size = 0 */
 353               	/* stack size = 0 */
 354               	.L__stack_usage = 0
 194:quantum/rgblight.c **** 
 355               		.loc 1 194 47 view .LVU79
 356 0000 6091 0000 		lds r22,rgblight_config
 357 0004 7091 0000 		lds r23,rgblight_config+1
 358 0008 8091 0000 		lds r24,rgblight_config+2
 359 000c 9091 0000 		lds r25,rgblight_config+3
 360 0010 0C94 0000 		jmp eeconfig_update_rgblight
 361               	.LVL20:
 362               		.cfi_endproc
 363               	.LFE93:
 365               		.section	.text.eeconfig_update_rgblight_default,"ax",@progbits
 366               	.global	eeconfig_update_rgblight_default
 368               	eeconfig_update_rgblight_default:
 369               	.LFB94:
 196:quantum/rgblight.c ****     rgblight_config.enable = 1;
 370               		.loc 1 196 45 view -0
 371               		.cfi_startproc
 372               	/* prologue: function */
 373               	/* frame size = 0 */
 374               	/* stack size = 0 */
 375               	.L__stack_usage = 0
 197:quantum/rgblight.c ****     rgblight_config.mode   = RGBLIGHT_DEFAULT_MODE;
 376               		.loc 1 197 5 view .LVU81
 198:quantum/rgblight.c ****     rgblight_config.hue    = RGBLIGHT_DEFAULT_HUE;
 377               		.loc 1 198 5 view .LVU82
 199:quantum/rgblight.c ****     rgblight_config.sat    = RGBLIGHT_DEFAULT_SAT;
 378               		.loc 1 199 5 view .LVU83
 200:quantum/rgblight.c ****     rgblight_config.val    = RGBLIGHT_DEFAULT_VAL;
 379               		.loc 1 200 5 view .LVU84
 201:quantum/rgblight.c ****     rgblight_config.speed  = RGBLIGHT_DEFAULT_SPD;
 380               		.loc 1 201 5 view .LVU85
 202:quantum/rgblight.c ****     RGBLIGHT_SPLIT_SET_CHANGE_MODEHSVS;
 381               		.loc 1 202 5 view .LVU86
 197:quantum/rgblight.c ****     rgblight_config.mode   = RGBLIGHT_DEFAULT_MODE;
 382               		.loc 1 197 28 is_stmt 0 view .LVU87
 383 0000 E0E0      		ldi r30,lo8(rgblight_config)
 384 0002 F0E0      		ldi r31,hi8(rgblight_config)
 385 0004 83E0      		ldi r24,lo8(3)
 386 0006 8083      		st Z,r24
 199:quantum/rgblight.c ****     rgblight_config.sat    = RGBLIGHT_DEFAULT_SAT;
 387               		.loc 1 199 28 view .LVU88
 388 0008 1182      		std Z+1,__zero_reg__
 200:quantum/rgblight.c ****     rgblight_config.val    = RGBLIGHT_DEFAULT_VAL;
 389               		.loc 1 200 28 view .LVU89
 390 000a 8FEF      		ldi r24,lo8(-1)
 391 000c 8283      		std Z+2,r24
 201:quantum/rgblight.c ****     rgblight_config.speed  = RGBLIGHT_DEFAULT_SPD;
 392               		.loc 1 201 28 view .LVU90
 393 000e 8383      		std Z+3,r24
 202:quantum/rgblight.c ****     RGBLIGHT_SPLIT_SET_CHANGE_MODEHSVS;
 394               		.loc 1 202 28 view .LVU91
 395 0010 1482      		std Z+4,__zero_reg__
 203:quantum/rgblight.c ****     eeconfig_update_rgblight(rgblight_config.raw);
 396               		.loc 1 203 39 is_stmt 1 view .LVU92
 204:quantum/rgblight.c **** }
 397               		.loc 1 204 5 view .LVU93
 398 0012 6081      		ld r22,Z
 399 0014 7181      		ldd r23,Z+1
 400 0016 8281      		ldd r24,Z+2
 401 0018 9381      		ldd r25,Z+3
 402 001a 0C94 0000 		jmp eeconfig_update_rgblight
 403               	.LVL21:
 404               		.cfi_endproc
 405               	.LFE94:
 407               		.section	.text.eeconfig_debug_rgblight,"ax",@progbits
 408               	.global	eeconfig_debug_rgblight
 410               	eeconfig_debug_rgblight:
 411               	.LFB95:
 207:quantum/rgblight.c ****     dprintf("rgblight_config EEPROM:\n");
 412               		.loc 1 207 36 view -0
 413               		.cfi_startproc
 414               	/* prologue: function */
 415               	/* frame size = 0 */
 416               	/* stack size = 0 */
 417               	.L__stack_usage = 0
 208:quantum/rgblight.c ****     dprintf("rgblight_config.enable = %d\n", rgblight_config.enable);
 418               		.loc 1 208 41 view .LVU95
 209:quantum/rgblight.c ****     dprintf("rghlight_config.mode = %d\n", rgblight_config.mode);
 419               		.loc 1 209 69 view .LVU96
 210:quantum/rgblight.c ****     dprintf("rgblight_config.hue = %d\n", rgblight_config.hue);
 420               		.loc 1 210 65 view .LVU97
 211:quantum/rgblight.c ****     dprintf("rgblight_config.sat = %d\n", rgblight_config.sat);
 421               		.loc 1 211 63 view .LVU98
 212:quantum/rgblight.c ****     dprintf("rgblight_config.val = %d\n", rgblight_config.val);
 422               		.loc 1 212 63 view .LVU99
 213:quantum/rgblight.c ****     dprintf("rgblight_config.speed = %d\n", rgblight_config.speed);
 423               		.loc 1 213 63 view .LVU100
 214:quantum/rgblight.c **** }
 424               		.loc 1 214 67 view .LVU101
 425               	/* epilogue start */
 215:quantum/rgblight.c **** 
 426               		.loc 1 215 1 is_stmt 0 view .LVU102
 427 0000 0895      		ret
 428               		.cfi_endproc
 429               	.LFE95:
 431               		.section	.text.rgblight_read_dword,"ax",@progbits
 432               	.global	rgblight_read_dword
 434               	rgblight_read_dword:
 435               	.LFB98:
 263:quantum/rgblight.c **** 
 436               		.loc 1 263 36 is_stmt 1 view -0
 437               		.cfi_startproc
 438               	/* prologue: function */
 439               	/* frame size = 0 */
 440               	/* stack size = 0 */
 441               	.L__stack_usage = 0
 263:quantum/rgblight.c **** 
 442               		.loc 1 263 38 view .LVU104
 263:quantum/rgblight.c **** 
 443               		.loc 1 263 60 is_stmt 0 view .LVU105
 444 0000 6091 0000 		lds r22,rgblight_config
 445 0004 7091 0000 		lds r23,rgblight_config+1
 446 0008 8091 0000 		lds r24,rgblight_config+2
 447 000c 9091 0000 		lds r25,rgblight_config+3
 448               	/* epilogue start */
 263:quantum/rgblight.c **** 
 449               		.loc 1 263 1 view .LVU106
 450 0010 0895      		ret
 451               		.cfi_endproc
 452               	.LFE98:
 454               		.section	.text.rgblight_get_mode,"ax",@progbits
 455               	.global	rgblight_get_mode
 457               	rgblight_get_mode:
 458               	.LFB108:
 312:quantum/rgblight.c ****     if (!rgblight_config.enable) {
 459               		.loc 1 312 33 is_stmt 1 view -0
 460               		.cfi_startproc
 461               	/* prologue: function */
 462               	/* frame size = 0 */
 463               	/* stack size = 0 */
 464               	.L__stack_usage = 0
 313:quantum/rgblight.c ****         return false;
 465               		.loc 1 313 5 view .LVU108
 313:quantum/rgblight.c ****         return false;
 466               		.loc 1 313 25 is_stmt 0 view .LVU109
 467 0000 8091 0000 		lds r24,rgblight_config
 313:quantum/rgblight.c ****         return false;
 468               		.loc 1 313 8 view .LVU110
 469 0004 80FF      		sbrs r24,0
 470 0006 00C0      		rjmp .L21
 317:quantum/rgblight.c **** }
 471               		.loc 1 317 5 is_stmt 1 view .LVU111
 317:quantum/rgblight.c **** }
 472               		.loc 1 317 27 is_stmt 0 view .LVU112
 473 0008 8695      		lsr r24
 474 000a 0895      		ret
 475               	.L21:
 314:quantum/rgblight.c ****     }
 476               		.loc 1 314 16 view .LVU113
 477 000c 80E0      		ldi r24,0
 478               	/* epilogue start */
 318:quantum/rgblight.c **** 
 479               		.loc 1 318 1 view .LVU114
 480 000e 0895      		ret
 481               		.cfi_endproc
 482               	.LFE108:
 484               		.section	.text.rgblight_is_enabled,"ax",@progbits
 485               	.global	rgblight_is_enabled
 487               	rgblight_is_enabled:
 488               	.LFB118:
 404:quantum/rgblight.c **** 
 489               		.loc 1 404 32 is_stmt 1 view -0
 490               		.cfi_startproc
 491               	/* prologue: function */
 492               	/* frame size = 0 */
 493               	/* stack size = 0 */
 494               	.L__stack_usage = 0
 404:quantum/rgblight.c **** 
 495               		.loc 1 404 34 view .LVU116
 404:quantum/rgblight.c **** 
 496               		.loc 1 404 56 is_stmt 0 view .LVU117
 497 0000 8091 0000 		lds r24,rgblight_config
 404:quantum/rgblight.c **** 
 498               		.loc 1 404 1 view .LVU118
 499 0004 8170      		andi r24,lo8(1)
 500               	/* epilogue start */
 501 0006 0895      		ret
 502               		.cfi_endproc
 503               	.LFE118:
 505               		.section	.text.rgblight_increase_speed_helper,"ax",@progbits
 506               	.global	rgblight_increase_speed_helper
 508               	rgblight_increase_speed_helper:
 509               	.LVL22:
 510               	.LFB137:
 443:quantum/rgblight.c ****     if (rgblight_config.speed < 3) rgblight_config.speed++;
 511               		.loc 1 443 59 is_stmt 1 view -0
 512               		.cfi_startproc
 513               	/* prologue: function */
 514               	/* frame size = 0 */
 515               	/* stack size = 0 */
 516               	.L__stack_usage = 0
 444:quantum/rgblight.c ****     // RGBLIGHT_SPLIT_SET_CHANGE_HSVS; // NEED?
 517               		.loc 1 444 5 view .LVU120
 444:quantum/rgblight.c ****     // RGBLIGHT_SPLIT_SET_CHANGE_HSVS; // NEED?
 518               		.loc 1 444 24 is_stmt 0 view .LVU121
 519 0000 9091 0000 		lds r25,rgblight_config+4
 444:quantum/rgblight.c ****     // RGBLIGHT_SPLIT_SET_CHANGE_HSVS; // NEED?
 520               		.loc 1 444 8 view .LVU122
 521 0004 9330      		cpi r25,lo8(3)
 522 0006 00F4      		brsh .L24
 444:quantum/rgblight.c ****     // RGBLIGHT_SPLIT_SET_CHANGE_HSVS; // NEED?
 523               		.loc 1 444 36 is_stmt 1 discriminator 1 view .LVU123
 444:quantum/rgblight.c ****     // RGBLIGHT_SPLIT_SET_CHANGE_HSVS; // NEED?
 524               		.loc 1 444 57 is_stmt 0 discriminator 1 view .LVU124
 525 0008 9F5F      		subi r25,lo8(-(1))
 526 000a 9093 0000 		sts rgblight_config+4,r25
 527               	.L24:
 446:quantum/rgblight.c ****         eeconfig_update_rgblight(rgblight_config.raw);  // EECONFIG needs to be increased to suppor
 528               		.loc 1 446 5 is_stmt 1 view .LVU125
 446:quantum/rgblight.c ****         eeconfig_update_rgblight(rgblight_config.raw);  // EECONFIG needs to be increased to suppor
 529               		.loc 1 446 8 is_stmt 0 view .LVU126
 530 000e 8823      		tst r24
 531 0010 01F0      		breq .L23
 447:quantum/rgblight.c ****     }
 532               		.loc 1 447 9 is_stmt 1 view .LVU127
 533 0012 6091 0000 		lds r22,rgblight_config
 534 0016 7091 0000 		lds r23,rgblight_config+1
 535 001a 8091 0000 		lds r24,rgblight_config+2
 536 001e 9091 0000 		lds r25,rgblight_config+3
 537 0022 0C94 0000 		jmp eeconfig_update_rgblight
 538               	.LVL23:
 539               	.L23:
 540               	/* epilogue start */
 449:quantum/rgblight.c **** void rgblight_increase_speed(void) { rgblight_increase_speed_helper(true); }
 541               		.loc 1 449 1 is_stmt 0 view .LVU128
 542 0026 0895      		ret
 543               		.cfi_endproc
 544               	.LFE137:
 546               		.section	.text.rgblight_increase_speed,"ax",@progbits
 547               	.global	rgblight_increase_speed
 549               	rgblight_increase_speed:
 550               	.LFB138:
 450:quantum/rgblight.c **** void rgblight_increase_speed_noeeprom(void) { rgblight_increase_speed_helper(false); }
 551               		.loc 1 450 36 is_stmt 1 view -0
 552               		.cfi_startproc
 553               	/* prologue: function */
 554               	/* frame size = 0 */
 555               	/* stack size = 0 */
 556               	.L__stack_usage = 0
 450:quantum/rgblight.c **** void rgblight_increase_speed_noeeprom(void) { rgblight_increase_speed_helper(false); }
 557               		.loc 1 450 38 view .LVU130
 558 0000 81E0      		ldi r24,lo8(1)
 559 0002 0C94 0000 		jmp rgblight_increase_speed_helper
 560               	.LVL24:
 561               		.cfi_endproc
 562               	.LFE138:
 564               		.section	.text.rgblight_increase_speed_noeeprom,"ax",@progbits
 565               	.global	rgblight_increase_speed_noeeprom
 567               	rgblight_increase_speed_noeeprom:
 568               	.LFB139:
 451:quantum/rgblight.c **** 
 569               		.loc 1 451 45 view -0
 570               		.cfi_startproc
 571               	/* prologue: function */
 572               	/* frame size = 0 */
 573               	/* stack size = 0 */
 574               	.L__stack_usage = 0
 451:quantum/rgblight.c **** 
 575               		.loc 1 451 47 view .LVU132
 576 0000 80E0      		ldi r24,0
 577 0002 0C94 0000 		jmp rgblight_increase_speed_helper
 578               	.LVL25:
 579               		.cfi_endproc
 580               	.LFE139:
 582               		.section	.text.rgblight_decrease_speed_helper,"ax",@progbits
 583               	.global	rgblight_decrease_speed_helper
 585               	rgblight_decrease_speed_helper:
 586               	.LVL26:
 587               	.LFB140:
 453:quantum/rgblight.c ****     if (rgblight_config.speed > 0) rgblight_config.speed--;
 588               		.loc 1 453 59 view -0
 589               		.cfi_startproc
 590               	/* prologue: function */
 591               	/* frame size = 0 */
 592               	/* stack size = 0 */
 593               	.L__stack_usage = 0
 454:quantum/rgblight.c ****     // RGBLIGHT_SPLIT_SET_CHANGE_HSVS; // NEED??
 594               		.loc 1 454 5 view .LVU134
 454:quantum/rgblight.c ****     // RGBLIGHT_SPLIT_SET_CHANGE_HSVS; // NEED??
 595               		.loc 1 454 24 is_stmt 0 view .LVU135
 596 0000 9091 0000 		lds r25,rgblight_config+4
 454:quantum/rgblight.c ****     // RGBLIGHT_SPLIT_SET_CHANGE_HSVS; // NEED??
 597               		.loc 1 454 8 view .LVU136
 598 0004 9923      		tst r25
 599 0006 01F0      		breq .L29
 454:quantum/rgblight.c ****     // RGBLIGHT_SPLIT_SET_CHANGE_HSVS; // NEED??
 600               		.loc 1 454 36 is_stmt 1 discriminator 1 view .LVU137
 454:quantum/rgblight.c ****     // RGBLIGHT_SPLIT_SET_CHANGE_HSVS; // NEED??
 601               		.loc 1 454 57 is_stmt 0 discriminator 1 view .LVU138
 602 0008 9150      		subi r25,lo8(-(-1))
 603 000a 9093 0000 		sts rgblight_config+4,r25
 604               	.L29:
 456:quantum/rgblight.c ****         eeconfig_update_rgblight(rgblight_config.raw);  // EECONFIG needs to be increased to suppor
 605               		.loc 1 456 5 is_stmt 1 view .LVU139
 456:quantum/rgblight.c ****         eeconfig_update_rgblight(rgblight_config.raw);  // EECONFIG needs to be increased to suppor
 606               		.loc 1 456 8 is_stmt 0 view .LVU140
 607 000e 8823      		tst r24
 608 0010 01F0      		breq .L28
 457:quantum/rgblight.c ****     }
 609               		.loc 1 457 9 is_stmt 1 view .LVU141
 610 0012 6091 0000 		lds r22,rgblight_config
 611 0016 7091 0000 		lds r23,rgblight_config+1
 612 001a 8091 0000 		lds r24,rgblight_config+2
 613 001e 9091 0000 		lds r25,rgblight_config+3
 614 0022 0C94 0000 		jmp eeconfig_update_rgblight
 615               	.LVL27:
 616               	.L28:
 617               	/* epilogue start */
 459:quantum/rgblight.c **** void rgblight_decrease_speed(void) { rgblight_decrease_speed_helper(true); }
 618               		.loc 1 459 1 is_stmt 0 view .LVU142
 619 0026 0895      		ret
 620               		.cfi_endproc
 621               	.LFE140:
 623               		.section	.text.rgblight_decrease_speed,"ax",@progbits
 624               	.global	rgblight_decrease_speed
 626               	rgblight_decrease_speed:
 627               	.LFB141:
 460:quantum/rgblight.c **** void rgblight_decrease_speed_noeeprom(void) { rgblight_decrease_speed_helper(false); }
 628               		.loc 1 460 36 is_stmt 1 view -0
 629               		.cfi_startproc
 630               	/* prologue: function */
 631               	/* frame size = 0 */
 632               	/* stack size = 0 */
 633               	.L__stack_usage = 0
 460:quantum/rgblight.c **** void rgblight_decrease_speed_noeeprom(void) { rgblight_decrease_speed_helper(false); }
 634               		.loc 1 460 38 view .LVU144
 635 0000 81E0      		ldi r24,lo8(1)
 636 0002 0C94 0000 		jmp rgblight_decrease_speed_helper
 637               	.LVL28:
 638               		.cfi_endproc
 639               	.LFE141:
 641               		.section	.text.rgblight_decrease_speed_noeeprom,"ax",@progbits
 642               	.global	rgblight_decrease_speed_noeeprom
 644               	rgblight_decrease_speed_noeeprom:
 645               	.LFB142:
 461:quantum/rgblight.c **** 
 646               		.loc 1 461 45 view -0
 647               		.cfi_startproc
 648               	/* prologue: function */
 649               	/* frame size = 0 */
 650               	/* stack size = 0 */
 651               	.L__stack_usage = 0
 461:quantum/rgblight.c **** 
 652               		.loc 1 461 47 view .LVU146
 653 0000 80E0      		ldi r24,0
 654 0002 0C94 0000 		jmp rgblight_decrease_speed_helper
 655               	.LVL29:
 656               		.cfi_endproc
 657               	.LFE142:
 659               		.section	.text.rgblight_get_speed,"ax",@progbits
 660               	.global	rgblight_get_speed
 662               	rgblight_get_speed:
 663               	.LFB147:
 547:quantum/rgblight.c **** 
 664               		.loc 1 547 34 view -0
 665               		.cfi_startproc
 666               	/* prologue: function */
 667               	/* frame size = 0 */
 668               	/* stack size = 0 */
 669               	.L__stack_usage = 0
 547:quantum/rgblight.c **** 
 670               		.loc 1 547 36 view .LVU148
 547:quantum/rgblight.c **** 
 671               		.loc 1 547 1 is_stmt 0 view .LVU149
 672 0000 8091 0000 		lds r24,rgblight_config+4
 673               	/* epilogue start */
 674 0004 0895      		ret
 675               		.cfi_endproc
 676               	.LFE147:
 678               		.section	.text.rgblight_set_speed_eeprom_helper,"ax",@progbits
 679               	.global	rgblight_set_speed_eeprom_helper
 681               	rgblight_set_speed_eeprom_helper:
 682               	.LVL30:
 683               	.LFB148:
 549:quantum/rgblight.c ****     rgblight_config.speed = speed;
 684               		.loc 1 549 76 is_stmt 1 view -0
 685               		.cfi_startproc
 686               	/* prologue: function */
 687               	/* frame size = 0 */
 688               	/* stack size = 0 */
 689               	.L__stack_usage = 0
 550:quantum/rgblight.c ****     if (write_to_eeprom) {
 690               		.loc 1 550 5 view .LVU151
 550:quantum/rgblight.c ****     if (write_to_eeprom) {
 691               		.loc 1 550 27 is_stmt 0 view .LVU152
 692 0000 8093 0000 		sts rgblight_config+4,r24
 551:quantum/rgblight.c ****         eeconfig_update_rgblight(rgblight_config.raw);  // EECONFIG needs to be increased to suppor
 693               		.loc 1 551 5 is_stmt 1 view .LVU153
 551:quantum/rgblight.c ****         eeconfig_update_rgblight(rgblight_config.raw);  // EECONFIG needs to be increased to suppor
 694               		.loc 1 551 8 is_stmt 0 view .LVU154
 695 0004 6623      		tst r22
 696 0006 01F0      		breq .L37
 552:quantum/rgblight.c ****         dprintf("rgblight set speed [EEPROM]: %u\n", rgblight_config.speed);
 697               		.loc 1 552 9 is_stmt 1 view .LVU155
 698 0008 6091 0000 		lds r22,rgblight_config
 699 000c 7091 0000 		lds r23,rgblight_config+1
 700 0010 8091 0000 		lds r24,rgblight_config+2
 701 0014 9091 0000 		lds r25,rgblight_config+3
 702               	.LVL31:
 552:quantum/rgblight.c ****         dprintf("rgblight set speed [EEPROM]: %u\n", rgblight_config.speed);
 703               		.loc 1 552 9 is_stmt 0 view .LVU156
 704 0018 0C94 0000 		jmp eeconfig_update_rgblight
 705               	.LVL32:
 706               	.L37:
 707               	/* epilogue start */
 557:quantum/rgblight.c **** 
 708               		.loc 1 557 1 view .LVU157
 709 001c 0895      		ret
 710               		.cfi_endproc
 711               	.LFE148:
 713               		.section	.text.rgblight_set_speed,"ax",@progbits
 714               	.global	rgblight_set_speed
 716               	rgblight_set_speed:
 717               	.LVL33:
 718               	.LFB149:
 559:quantum/rgblight.c **** 
 719               		.loc 1 559 40 is_stmt 1 view -0
 720               		.cfi_startproc
 721               	/* prologue: function */
 722               	/* frame size = 0 */
 723               	/* stack size = 0 */
 724               	.L__stack_usage = 0
 559:quantum/rgblight.c **** 
 725               		.loc 1 559 42 view .LVU159
 726 0000 61E0      		ldi r22,lo8(1)
 727 0002 0C94 0000 		jmp rgblight_set_speed_eeprom_helper
 728               	.LVL34:
 559:quantum/rgblight.c **** 
 729               		.loc 1 559 42 is_stmt 0 view .LVU160
 730               		.cfi_endproc
 731               	.LFE149:
 733               		.section	.text.rgblight_set_speed_noeeprom,"ax",@progbits
 734               	.global	rgblight_set_speed_noeeprom
 736               	rgblight_set_speed_noeeprom:
 737               	.LVL35:
 738               	.LFB150:
 561:quantum/rgblight.c **** 
 739               		.loc 1 561 49 is_stmt 1 view -0
 740               		.cfi_startproc
 741               	/* prologue: function */
 742               	/* frame size = 0 */
 743               	/* stack size = 0 */
 744               	.L__stack_usage = 0
 561:quantum/rgblight.c **** 
 745               		.loc 1 561 51 view .LVU162
 746 0000 60E0      		ldi r22,0
 747 0002 0C94 0000 		jmp rgblight_set_speed_eeprom_helper
 748               	.LVL36:
 561:quantum/rgblight.c **** 
 749               		.loc 1 561 51 is_stmt 0 view .LVU163
 750               		.cfi_endproc
 751               	.LFE150:
 753               		.section	.text.rgblight_get_hue,"ax",@progbits
 754               	.global	rgblight_get_hue
 756               	rgblight_get_hue:
 757               	.LFB151:
 563:quantum/rgblight.c **** 
 758               		.loc 1 563 32 is_stmt 1 view -0
 759               		.cfi_startproc
 760               	/* prologue: function */
 761               	/* frame size = 0 */
 762               	/* stack size = 0 */
 763               	.L__stack_usage = 0
 563:quantum/rgblight.c **** 
 764               		.loc 1 563 34 view .LVU165
 563:quantum/rgblight.c **** 
 765               		.loc 1 563 1 is_stmt 0 view .LVU166
 766 0000 8091 0000 		lds r24,rgblight_config+1
 767               	/* epilogue start */
 768 0004 0895      		ret
 769               		.cfi_endproc
 770               	.LFE151:
 772               		.section	.text.rgblight_get_sat,"ax",@progbits
 773               	.global	rgblight_get_sat
 775               	rgblight_get_sat:
 776               	.LFB152:
 565:quantum/rgblight.c **** 
 777               		.loc 1 565 32 is_stmt 1 view -0
 778               		.cfi_startproc
 779               	/* prologue: function */
 780               	/* frame size = 0 */
 781               	/* stack size = 0 */
 782               	.L__stack_usage = 0
 565:quantum/rgblight.c **** 
 783               		.loc 1 565 34 view .LVU168
 565:quantum/rgblight.c **** 
 784               		.loc 1 565 1 is_stmt 0 view .LVU169
 785 0000 8091 0000 		lds r24,rgblight_config+2
 786               	/* epilogue start */
 787 0004 0895      		ret
 788               		.cfi_endproc
 789               	.LFE152:
 791               		.section	.text.rgblight_get_val,"ax",@progbits
 792               	.global	rgblight_get_val
 794               	rgblight_get_val:
 795               	.LFB153:
 567:quantum/rgblight.c **** 
 796               		.loc 1 567 32 is_stmt 1 view -0
 797               		.cfi_startproc
 798               	/* prologue: function */
 799               	/* frame size = 0 */
 800               	/* stack size = 0 */
 801               	.L__stack_usage = 0
 567:quantum/rgblight.c **** 
 802               		.loc 1 567 34 view .LVU171
 567:quantum/rgblight.c **** 
 803               		.loc 1 567 1 is_stmt 0 view .LVU172
 804 0000 8091 0000 		lds r24,rgblight_config+3
 805               	/* epilogue start */
 806 0004 0895      		ret
 807               		.cfi_endproc
 808               	.LFE153:
 810               		.section	.text.rgblight_get_hsv,"ax",@progbits
 811               	.global	rgblight_get_hsv
 813               	rgblight_get_hsv:
 814               	.LFB154:
 569:quantum/rgblight.c **** 
 815               		.loc 1 569 28 is_stmt 1 view -0
 816               		.cfi_startproc
 817               	/* prologue: function */
 818               	/* frame size = 0 */
 819               	/* stack size = 0 */
 820               	.L__stack_usage = 0
 569:quantum/rgblight.c **** 
 821               		.loc 1 569 30 view .LVU174
 569:quantum/rgblight.c **** 
 822               		.loc 1 569 79 is_stmt 0 view .LVU175
 823 0000 E0E0      		ldi r30,lo8(rgblight_config)
 824 0002 F0E0      		ldi r31,hi8(rgblight_config)
 825 0004 7281      		ldd r23,Z+2
 569:quantum/rgblight.c **** 
 826               		.loc 1 569 37 view .LVU176
 827 0006 6181      		ldd r22,Z+1
 569:quantum/rgblight.c **** 
 828               		.loc 1 569 1 view .LVU177
 829 0008 8381      		ldd r24,Z+3
 830               	/* epilogue start */
 831 000a 0895      		ret
 832               		.cfi_endproc
 833               	.LFE154:
 835               		.section	.text.rgblight_call_driver,"ax",@progbits
 836               		.weak	rgblight_call_driver
 838               	rgblight_call_driver:
 839               	.LVL37:
 840               	.LFB165:
 792:quantum/rgblight.c **** 
 841               		.loc 1 792 88 is_stmt 1 view -0
 842               		.cfi_startproc
 843               	/* prologue: function */
 844               	/* frame size = 0 */
 845               	/* stack size = 0 */
 846               	.L__stack_usage = 0
 792:quantum/rgblight.c **** 
 847               		.loc 1 792 90 view .LVU179
 848 0000 70E0      		ldi r23,0
 849 0002 0C94 0000 		jmp ws2812_setleds
 850               	.LVL38:
 792:quantum/rgblight.c **** 
 851               		.loc 1 792 90 is_stmt 0 view .LVU180
 852               		.cfi_endproc
 853               	.LFE165:
 855               		.section	.text.rgblight_set,"ax",@progbits
 856               	.global	rgblight_set
 858               	rgblight_set:
 859               	.LFB166:
 796:quantum/rgblight.c ****     LED_TYPE *start_led;
 860               		.loc 1 796 25 is_stmt 1 view -0
 861               		.cfi_startproc
 862               	/* prologue: function */
 863               	/* frame size = 0 */
 864               	/* stack size = 0 */
 865               	.L__stack_usage = 0
 797:quantum/rgblight.c ****     uint8_t   num_leds = rgblight_ranges.clipping_num_leds;
 866               		.loc 1 797 5 view .LVU182
 798:quantum/rgblight.c **** 
 867               		.loc 1 798 5 view .LVU183
 798:quantum/rgblight.c **** 
 868               		.loc 1 798 15 is_stmt 0 view .LVU184
 869 0000 6091 0000 		lds r22,rgblight_ranges+1
 870               	.LVL39:
 800:quantum/rgblight.c ****         for (uint8_t i = rgblight_ranges.effect_start_pos; i < rgblight_ranges.effect_end_pos; i++)
 871               		.loc 1 800 5 is_stmt 1 view .LVU185
 800:quantum/rgblight.c ****         for (uint8_t i = rgblight_ranges.effect_start_pos; i < rgblight_ranges.effect_end_pos; i++)
 872               		.loc 1 800 25 is_stmt 0 view .LVU186
 873 0004 8091 0000 		lds r24,rgblight_config
 800:quantum/rgblight.c ****         for (uint8_t i = rgblight_ranges.effect_start_pos; i < rgblight_ranges.effect_end_pos; i++)
 874               		.loc 1 800 8 view .LVU187
 875 0008 80FF      		sbrs r24,0
 876 000a 00C0      		rjmp .L47
 877               	.L50:
 830:quantum/rgblight.c **** #    endif
 878               		.loc 1 830 5 is_stmt 1 view .LVU188
 879               	.LVL40:
 838:quantum/rgblight.c **** }
 880               		.loc 1 838 5 view .LVU189
 830:quantum/rgblight.c **** #    endif
 881               		.loc 1 830 21 is_stmt 0 view .LVU190
 882 000c 8091 0000 		lds r24,rgblight_ranges
 883 0010 23E0      		ldi r18,lo8(3)
 884 0012 829F      		mul r24,r18
 885 0014 C001      		movw r24,r0
 886 0016 1124      		clr __zero_reg__
 838:quantum/rgblight.c **** }
 887               		.loc 1 838 5 view .LVU191
 888 0018 8050      		subi r24,lo8(-(led))
 889 001a 9040      		sbci r25,hi8(-(led))
 890 001c 0C94 0000 		jmp rgblight_call_driver
 891               	.LVL41:
 892               	.L47:
 801:quantum/rgblight.c ****             led[i].r = 0;
 893               		.loc 1 801 9 is_stmt 1 view .LVU192
 894               	.LBB22:
 801:quantum/rgblight.c ****             led[i].r = 0;
 895               		.loc 1 801 14 view .LVU193
 801:quantum/rgblight.c ****             led[i].r = 0;
 896               		.loc 1 801 22 is_stmt 0 view .LVU194
 897 0020 8091 0000 		lds r24,rgblight_ranges+2
 898               	.LVL42:
 801:quantum/rgblight.c ****             led[i].r = 0;
 899               		.loc 1 801 79 view .LVU195
 900 0024 9091 0000 		lds r25,rgblight_ranges+3
 901 0028 23E0      		ldi r18,lo8(3)
 902 002a 829F      		mul r24,r18
 903 002c F001      		movw r30,r0
 904 002e 1124      		clr __zero_reg__
 905 0030 E050      		subi r30,lo8(-(led))
 906 0032 F040      		sbci r31,hi8(-(led))
 907               	.L48:
 801:quantum/rgblight.c ****             led[i].r = 0;
 908               		.loc 1 801 60 is_stmt 1 discriminator 1 view .LVU196
 801:quantum/rgblight.c ****             led[i].r = 0;
 909               		.loc 1 801 9 is_stmt 0 discriminator 1 view .LVU197
 910 0034 8917      		cp r24,r25
 911 0036 00F4      		brsh .L50
 802:quantum/rgblight.c ****             led[i].g = 0;
 912               		.loc 1 802 13 is_stmt 1 discriminator 3 view .LVU198
 802:quantum/rgblight.c ****             led[i].g = 0;
 913               		.loc 1 802 22 is_stmt 0 discriminator 3 view .LVU199
 914 0038 1182      		std Z+1,__zero_reg__
 803:quantum/rgblight.c ****             led[i].b = 0;
 915               		.loc 1 803 13 is_stmt 1 discriminator 3 view .LVU200
 803:quantum/rgblight.c ****             led[i].b = 0;
 916               		.loc 1 803 22 is_stmt 0 discriminator 3 view .LVU201
 917 003a 1082      		st Z,__zero_reg__
 804:quantum/rgblight.c **** #    ifdef RGBW
 918               		.loc 1 804 13 is_stmt 1 discriminator 3 view .LVU202
 804:quantum/rgblight.c **** #    ifdef RGBW
 919               		.loc 1 804 22 is_stmt 0 discriminator 3 view .LVU203
 920 003c 1282      		std Z+2,__zero_reg__
 801:quantum/rgblight.c ****             led[i].r = 0;
 921               		.loc 1 801 96 is_stmt 1 discriminator 3 view .LVU204
 801:quantum/rgblight.c ****             led[i].r = 0;
 922               		.loc 1 801 97 is_stmt 0 discriminator 3 view .LVU205
 923 003e 8F5F      		subi r24,lo8(-(1))
 924               	.LVL43:
 801:quantum/rgblight.c ****             led[i].r = 0;
 925               		.loc 1 801 97 discriminator 3 view .LVU206
 926 0040 3396      		adiw r30,3
 927 0042 00C0      		rjmp .L48
 928               	.LBE22:
 929               		.cfi_endproc
 930               	.LFE166:
 932               		.section	.text.rgblight_setrgb,"ax",@progbits
 933               	.global	rgblight_setrgb
 935               	rgblight_setrgb:
 936               	.LVL44:
 937               	.LFB155:
 571:quantum/rgblight.c ****     if (!rgblight_config.enable) {
 938               		.loc 1 571 55 is_stmt 1 view -0
 939               		.cfi_startproc
 940               	/* prologue: function */
 941               	/* frame size = 0 */
 942               	/* stack size = 0 */
 943               	.L__stack_usage = 0
 572:quantum/rgblight.c ****         return;
 944               		.loc 1 572 5 view .LVU208
 572:quantum/rgblight.c ****         return;
 945               		.loc 1 572 25 is_stmt 0 view .LVU209
 946 0000 9091 0000 		lds r25,rgblight_config
 572:quantum/rgblight.c ****         return;
 947               		.loc 1 572 8 view .LVU210
 948 0004 90FF      		sbrs r25,0
 949 0006 00C0      		rjmp .L51
 576:quantum/rgblight.c ****         led[i].r = r;
 950               		.loc 1 576 5 is_stmt 1 view .LVU211
 951               	.LBB23:
 576:quantum/rgblight.c ****         led[i].r = r;
 952               		.loc 1 576 10 view .LVU212
 576:quantum/rgblight.c ****         led[i].r = r;
 953               		.loc 1 576 18 is_stmt 0 view .LVU213
 954 0008 9091 0000 		lds r25,rgblight_ranges+2
 955               	.LVL45:
 576:quantum/rgblight.c ****         led[i].r = r;
 956               		.loc 1 576 75 view .LVU214
 957 000c 2091 0000 		lds r18,rgblight_ranges+3
 958 0010 33E0      		ldi r19,lo8(3)
 959 0012 939F      		mul r25,r19
 960 0014 F001      		movw r30,r0
 961 0016 1124      		clr __zero_reg__
 962 0018 E050      		subi r30,lo8(-(led))
 963 001a F040      		sbci r31,hi8(-(led))
 964               	.L53:
 576:quantum/rgblight.c ****         led[i].r = r;
 965               		.loc 1 576 56 is_stmt 1 discriminator 1 view .LVU215
 576:quantum/rgblight.c ****         led[i].r = r;
 966               		.loc 1 576 5 is_stmt 0 discriminator 1 view .LVU216
 967 001c 9217      		cp r25,r18
 968 001e 00F0      		brlo .L54
 576:quantum/rgblight.c ****         led[i].r = r;
 969               		.loc 1 576 5 discriminator 1 view .LVU217
 970               	.LBE23:
 584:quantum/rgblight.c **** }
 971               		.loc 1 584 5 is_stmt 1 view .LVU218
 972 0020 0C94 0000 		jmp rgblight_set
 973               	.LVL46:
 974               	.L54:
 975               	.LBB24:
 577:quantum/rgblight.c ****         led[i].g = g;
 976               		.loc 1 577 9 discriminator 3 view .LVU219
 577:quantum/rgblight.c ****         led[i].g = g;
 977               		.loc 1 577 18 is_stmt 0 discriminator 3 view .LVU220
 978 0024 8183      		std Z+1,r24
 578:quantum/rgblight.c ****         led[i].b = b;
 979               		.loc 1 578 9 is_stmt 1 discriminator 3 view .LVU221
 578:quantum/rgblight.c ****         led[i].b = b;
 980               		.loc 1 578 18 is_stmt 0 discriminator 3 view .LVU222
 981 0026 6083      		st Z,r22
 579:quantum/rgblight.c **** #ifdef RGBW
 982               		.loc 1 579 9 is_stmt 1 discriminator 3 view .LVU223
 579:quantum/rgblight.c **** #ifdef RGBW
 983               		.loc 1 579 18 is_stmt 0 discriminator 3 view .LVU224
 984 0028 4283      		std Z+2,r20
 576:quantum/rgblight.c ****         led[i].r = r;
 985               		.loc 1 576 92 is_stmt 1 discriminator 3 view .LVU225
 576:quantum/rgblight.c ****         led[i].r = r;
 986               		.loc 1 576 93 is_stmt 0 discriminator 3 view .LVU226
 987 002a 9F5F      		subi r25,lo8(-(1))
 988               	.LVL47:
 576:quantum/rgblight.c ****         led[i].r = r;
 989               		.loc 1 576 93 discriminator 3 view .LVU227
 990 002c 3396      		adiw r30,3
 991 002e 00C0      		rjmp .L53
 992               	.LVL48:
 993               	.L51:
 994               	/* epilogue start */
 576:quantum/rgblight.c ****         led[i].r = r;
 995               		.loc 1 576 93 discriminator 3 view .LVU228
 996               	.LBE24:
 585:quantum/rgblight.c **** 
 997               		.loc 1 585 1 view .LVU229
 998 0030 0895      		ret
 999               		.cfi_endproc
 1000               	.LFE155:
 1002               		.section	.text.rgblight_sethsv_noeeprom_old,"ax",@progbits
 1003               	.global	rgblight_sethsv_noeeprom_old
 1005               	rgblight_sethsv_noeeprom_old:
 1006               	.LVL49:
 1007               	.LFB143:
 463:quantum/rgblight.c ****     if (rgblight_config.enable) {
 1008               		.loc 1 463 74 is_stmt 1 view -0
 1009               		.cfi_startproc
 463:quantum/rgblight.c ****     if (rgblight_config.enable) {
 1010               		.loc 1 463 74 is_stmt 0 view .LVU231
 1011 0000 CF93      		push r28
 1012               	.LCFI6:
 1013               		.cfi_def_cfa_offset 3
 1014               		.cfi_offset 28, -2
 1015 0002 DF93      		push r29
 1016               	.LCFI7:
 1017               		.cfi_def_cfa_offset 4
 1018               		.cfi_offset 29, -3
 1019 0004 00D0      		rcall .
 1020 0006 0F92      		push __tmp_reg__
 1021               	.LCFI8:
 1022               		.cfi_def_cfa_offset 7
 1023 0008 CDB7      		in r28,__SP_L__
 1024 000a DEB7      		in r29,__SP_H__
 1025               	.LCFI9:
 1026               		.cfi_def_cfa_register 28
 1027               	/* prologue: function */
 1028               	/* frame size = 3 */
 1029               	/* stack size = 5 */
 1030               	.L__stack_usage = 5
 464:quantum/rgblight.c ****         LED_TYPE tmp_led;
 1031               		.loc 1 464 5 is_stmt 1 view .LVU232
 464:quantum/rgblight.c ****         LED_TYPE tmp_led;
 1032               		.loc 1 464 9 is_stmt 0 view .LVU233
 1033 000c 9091 0000 		lds r25,rgblight_config
 464:quantum/rgblight.c ****         LED_TYPE tmp_led;
 1034               		.loc 1 464 8 view .LVU234
 1035 0010 90FF      		sbrs r25,0
 1036 0012 00C0      		rjmp .L55
 1037               	.LBB28:
 465:quantum/rgblight.c ****         sethsv(hue, sat, val, &tmp_led);
 1038               		.loc 1 465 9 is_stmt 1 view .LVU235
 466:quantum/rgblight.c ****         rgblight_setrgb(tmp_led.r, tmp_led.g, tmp_led.b);
 1039               		.loc 1 466 9 view .LVU236
 1040               	.LVL50:
 1041               	.LBB29:
 1042               	.LBI29:
 154:quantum/rgblight.c **** 
 1043               		.loc 1 154 6 view .LVU237
 1044               	.LBB30:
 154:quantum/rgblight.c **** 
 1045               		.loc 1 154 70 view .LVU238
 1046 0014 9E01      		movw r18,r28
 1047 0016 2F5F      		subi r18,-1
 1048 0018 3F4F      		sbci r19,-1
 1049 001a 0E94 0000 		call sethsv_raw
 1050               	.LVL51:
 154:quantum/rgblight.c **** 
 1051               		.loc 1 154 70 is_stmt 0 view .LVU239
 1052               	.LBE30:
 1053               	.LBE29:
 467:quantum/rgblight.c ****     }
 1054               		.loc 1 467 9 is_stmt 1 view .LVU240
 1055 001e 4B81      		ldd r20,Y+3
 1056 0020 6981      		ldd r22,Y+1
 1057 0022 8A81      		ldd r24,Y+2
 1058 0024 0E94 0000 		call rgblight_setrgb
 1059               	.LVL52:
 1060               	.L55:
 1061               	/* epilogue start */
 1062               	.LBE28:
 469:quantum/rgblight.c **** 
 1063               		.loc 1 469 1 is_stmt 0 view .LVU241
 1064 0028 0F90      		pop __tmp_reg__
 1065 002a 0F90      		pop __tmp_reg__
 1066 002c 0F90      		pop __tmp_reg__
 1067 002e DF91      		pop r29
 1068 0030 CF91      		pop r28
 1069 0032 0895      		ret
 1070               		.cfi_endproc
 1071               	.LFE143:
 1073               		.section	.text.rgblight_effect_breathing,"ax",@progbits
 1074               	.global	rgblight_effect_breathing
 1076               	rgblight_effect_breathing:
 1077               	.LVL53:
 1078               	.LFB175:
 937:quantum/rgblight.c **** 
 938:quantum/rgblight.c **** void rgblight_task(void) {
 939:quantum/rgblight.c ****     if (rgblight_status.timer_enabled) {
 940:quantum/rgblight.c ****         effect_func_t effect_func   = rgblight_effect_dummy;
 941:quantum/rgblight.c ****         uint16_t      interval_time = 2000;  // dummy interval
 942:quantum/rgblight.c ****         uint8_t       delta         = rgblight_config.mode - rgblight_status.base_mode;
 943:quantum/rgblight.c ****         animation_status.delta      = delta;
 944:quantum/rgblight.c **** 
 945:quantum/rgblight.c ****         // static light mode, do nothing here
 946:quantum/rgblight.c ****         if (1 == 0) {  // dummy
 947:quantum/rgblight.c ****         }
 948:quantum/rgblight.c **** #    ifdef RGBLIGHT_EFFECT_BREATHING
 949:quantum/rgblight.c ****         else if (rgblight_status.base_mode == RGBLIGHT_MODE_BREATHING) {
 950:quantum/rgblight.c ****             // breathing mode
 951:quantum/rgblight.c ****             interval_time = get_interval_time(&RGBLED_BREATHING_INTERVALS[delta], 1, 100);
 952:quantum/rgblight.c ****             effect_func   = rgblight_effect_breathing;
 953:quantum/rgblight.c ****         }
 954:quantum/rgblight.c **** #    endif
 955:quantum/rgblight.c **** #    ifdef RGBLIGHT_EFFECT_RAINBOW_MOOD
 956:quantum/rgblight.c ****         else if (rgblight_status.base_mode == RGBLIGHT_MODE_RAINBOW_MOOD) {
 957:quantum/rgblight.c ****             // rainbow mood mode
 958:quantum/rgblight.c ****             interval_time = get_interval_time(&RGBLED_RAINBOW_MOOD_INTERVALS[delta], 5, 100);
 959:quantum/rgblight.c ****             effect_func   = rgblight_effect_rainbow_mood;
 960:quantum/rgblight.c ****         }
 961:quantum/rgblight.c **** #    endif
 962:quantum/rgblight.c **** #    ifdef RGBLIGHT_EFFECT_RAINBOW_SWIRL
 963:quantum/rgblight.c ****         else if (rgblight_status.base_mode == RGBLIGHT_MODE_RAINBOW_SWIRL) {
 964:quantum/rgblight.c ****             // rainbow swirl mode
 965:quantum/rgblight.c ****             interval_time = get_interval_time(&RGBLED_RAINBOW_SWIRL_INTERVALS[delta / 2], 1, 100);
 966:quantum/rgblight.c ****             effect_func   = rgblight_effect_rainbow_swirl;
 967:quantum/rgblight.c ****         }
 968:quantum/rgblight.c **** #    endif
 969:quantum/rgblight.c **** #    ifdef RGBLIGHT_EFFECT_SNAKE
 970:quantum/rgblight.c ****         else if (rgblight_status.base_mode == RGBLIGHT_MODE_SNAKE) {
 971:quantum/rgblight.c ****             // snake mode
 972:quantum/rgblight.c ****             interval_time = get_interval_time(&RGBLED_SNAKE_INTERVALS[delta / 2], 1, 200);
 973:quantum/rgblight.c ****             effect_func   = rgblight_effect_snake;
 974:quantum/rgblight.c ****         }
 975:quantum/rgblight.c **** #    endif
 976:quantum/rgblight.c **** #    ifdef RGBLIGHT_EFFECT_KNIGHT
 977:quantum/rgblight.c ****         else if (rgblight_status.base_mode == RGBLIGHT_MODE_KNIGHT) {
 978:quantum/rgblight.c ****             // knight mode
 979:quantum/rgblight.c ****             interval_time = get_interval_time(&RGBLED_KNIGHT_INTERVALS[delta], 5, 100);
 980:quantum/rgblight.c ****             effect_func   = rgblight_effect_knight;
 981:quantum/rgblight.c ****         }
 982:quantum/rgblight.c **** #    endif
 983:quantum/rgblight.c **** #    ifdef RGBLIGHT_EFFECT_CHRISTMAS
 984:quantum/rgblight.c ****         else if (rgblight_status.base_mode == RGBLIGHT_MODE_CHRISTMAS) {
 985:quantum/rgblight.c ****             // christmas mode
 986:quantum/rgblight.c ****             interval_time = RGBLIGHT_EFFECT_CHRISTMAS_INTERVAL;
 987:quantum/rgblight.c ****             effect_func   = (effect_func_t)rgblight_effect_christmas;
 988:quantum/rgblight.c ****         }
 989:quantum/rgblight.c **** #    endif
 990:quantum/rgblight.c **** #    ifdef RGBLIGHT_EFFECT_RGB_TEST
 991:quantum/rgblight.c ****         else if (rgblight_status.base_mode == RGBLIGHT_MODE_RGB_TEST) {
 992:quantum/rgblight.c ****             // RGB test mode
 993:quantum/rgblight.c ****             interval_time = pgm_read_word(&RGBLED_RGBTEST_INTERVALS[0]);
 994:quantum/rgblight.c ****             effect_func   = (effect_func_t)rgblight_effect_rgbtest;
 995:quantum/rgblight.c ****         }
 996:quantum/rgblight.c **** #    endif
 997:quantum/rgblight.c **** #    ifdef RGBLIGHT_EFFECT_ALTERNATING
 998:quantum/rgblight.c ****         else if (rgblight_status.base_mode == RGBLIGHT_MODE_ALTERNATING) {
 999:quantum/rgblight.c ****             interval_time = 500;
1000:quantum/rgblight.c ****             effect_func   = (effect_func_t)rgblight_effect_alternating;
1001:quantum/rgblight.c ****         }
1002:quantum/rgblight.c **** #    endif
1003:quantum/rgblight.c **** #    ifdef RGBLIGHT_EFFECT_TWINKLE
1004:quantum/rgblight.c ****         else if (rgblight_status.base_mode == RGBLIGHT_MODE_TWINKLE) {
1005:quantum/rgblight.c ****             interval_time = get_interval_time(&RGBLED_TWINKLE_INTERVALS[delta % 3], 5, 30);
1006:quantum/rgblight.c ****             effect_func   = (effect_func_t)rgblight_effect_twinkle;
1007:quantum/rgblight.c ****         }
1008:quantum/rgblight.c **** #    endif
1009:quantum/rgblight.c ****         if (animation_status.restart) {
1010:quantum/rgblight.c ****             animation_status.restart    = false;
1011:quantum/rgblight.c ****             animation_status.last_timer = sync_timer_read();
1012:quantum/rgblight.c ****             animation_status.pos16      = 0;  // restart signal to local each effect
1013:quantum/rgblight.c ****         }
1014:quantum/rgblight.c ****         uint16_t now = sync_timer_read();
1015:quantum/rgblight.c ****         if (timer_expired(now, animation_status.last_timer)) {
1016:quantum/rgblight.c **** #    if defined(RGBLIGHT_SPLIT) && !defined(RGBLIGHT_SPLIT_NO_ANIMATION_SYNC)
1017:quantum/rgblight.c ****             static uint16_t report_last_timer = 0;
1018:quantum/rgblight.c ****             static bool     tick_flag         = false;
1019:quantum/rgblight.c ****             uint16_t        oldpos16;
1020:quantum/rgblight.c ****             if (tick_flag) {
1021:quantum/rgblight.c ****                 tick_flag = false;
1022:quantum/rgblight.c ****                 if (timer_expired(now, report_last_timer)) {
1023:quantum/rgblight.c ****                     report_last_timer += 30000;
1024:quantum/rgblight.c ****                     dprintf("rgblight animation tick report to slave\n");
1025:quantum/rgblight.c ****                     RGBLIGHT_SPLIT_ANIMATION_TICK;
1026:quantum/rgblight.c ****                 }
1027:quantum/rgblight.c ****             }
1028:quantum/rgblight.c ****             oldpos16 = animation_status.pos16;
1029:quantum/rgblight.c **** #    endif
1030:quantum/rgblight.c ****             animation_status.last_timer += interval_time;
1031:quantum/rgblight.c ****             effect_func(&animation_status);
1032:quantum/rgblight.c **** #    if defined(RGBLIGHT_SPLIT) && !defined(RGBLIGHT_SPLIT_NO_ANIMATION_SYNC)
1033:quantum/rgblight.c ****             if (animation_status.pos16 == 0 && oldpos16 != 0) {
1034:quantum/rgblight.c ****                 tick_flag = true;
1035:quantum/rgblight.c ****             }
1036:quantum/rgblight.c **** #    endif
1037:quantum/rgblight.c ****         }
1038:quantum/rgblight.c ****     }
1039:quantum/rgblight.c **** 
1040:quantum/rgblight.c **** #    ifdef RGBLIGHT_LAYER_BLINK
1041:quantum/rgblight.c ****     rgblight_blink_layer_repeat_helper();
1042:quantum/rgblight.c **** #    endif
1043:quantum/rgblight.c **** }
1044:quantum/rgblight.c **** 
1045:quantum/rgblight.c **** #endif /* RGBLIGHT_USE_TIMER */
1046:quantum/rgblight.c **** 
1047:quantum/rgblight.c **** #if defined(RGBLIGHT_EFFECT_BREATHING) || defined(RGBLIGHT_EFFECT_TWINKLE)
1048:quantum/rgblight.c **** 
1049:quantum/rgblight.c **** #    ifndef RGBLIGHT_EFFECT_BREATHE_CENTER
1050:quantum/rgblight.c **** #        ifndef RGBLIGHT_BREATHE_TABLE_SIZE
1051:quantum/rgblight.c **** #            define RGBLIGHT_BREATHE_TABLE_SIZE 256  // 256 or 128 or 64
1052:quantum/rgblight.c **** #        endif
1053:quantum/rgblight.c **** #        include <rgblight_breathe_table.h>
1054:quantum/rgblight.c **** #    endif
1055:quantum/rgblight.c **** 
1056:quantum/rgblight.c **** static uint8_t breathe_calc(uint8_t pos) {
1057:quantum/rgblight.c ****     // http://sean.voisen.org/blog/2011/10/breathing-led-with-arduino/
1058:quantum/rgblight.c **** #    ifdef RGBLIGHT_EFFECT_BREATHE_TABLE
1059:quantum/rgblight.c ****     return pgm_read_byte(&rgblight_effect_breathe_table[pos / table_scale]);
1060:quantum/rgblight.c **** #    else
1061:quantum/rgblight.c ****     return (exp(sin((pos / 255.0) * M_PI)) - RGBLIGHT_EFFECT_BREATHE_CENTER / M_E) * (RGBLIGHT_EFFE
1062:quantum/rgblight.c **** #    endif
1063:quantum/rgblight.c **** }
1064:quantum/rgblight.c **** 
1065:quantum/rgblight.c **** #endif
1066:quantum/rgblight.c **** 
1067:quantum/rgblight.c **** // Effects
1068:quantum/rgblight.c **** #ifdef RGBLIGHT_EFFECT_BREATHING
1069:quantum/rgblight.c **** 
1070:quantum/rgblight.c **** __attribute__((weak)) const uint8_t RGBLED_BREATHING_INTERVALS[] PROGMEM = {30, 20, 10, 5};
1071:quantum/rgblight.c **** 
1072:quantum/rgblight.c **** void rgblight_effect_breathing(animation_status_t *anim) {
 1079               		.loc 1 1072 58 is_stmt 1 view -0
 1080               		.cfi_startproc
 1081               		.loc 1 1072 58 is_stmt 0 view .LVU243
 1082 0000 CF93      		push r28
 1083               	.LCFI10:
 1084               		.cfi_def_cfa_offset 3
 1085               		.cfi_offset 28, -2
 1086 0002 DF93      		push r29
 1087               	.LCFI11:
 1088               		.cfi_def_cfa_offset 4
 1089               		.cfi_offset 29, -3
 1090               	/* prologue: function */
 1091               	/* frame size = 0 */
 1092               	/* stack size = 2 */
 1093               	.L__stack_usage = 2
 1094 0004 EC01      		movw r28,r24
1073:quantum/rgblight.c ****     uint8_t val = breathe_calc(anim->pos);
 1095               		.loc 1 1073 5 is_stmt 1 view .LVU244
 1096               	.LVL54:
 1097               	.LBB34:
 1098               	.LBI34:
1056:quantum/rgblight.c ****     // http://sean.voisen.org/blog/2011/10/breathing-led-with-arduino/
 1099               		.loc 1 1056 16 view .LVU245
 1100               	.LBE34:
1059:quantum/rgblight.c **** #    else
 1101               		.loc 1 1059 5 view .LVU246
 1102               	.LBB36:
 1103               	.LBB35:
1059:quantum/rgblight.c **** #    else
 1104               		.loc 1 1059 12 view .LVU247
1059:quantum/rgblight.c **** #    else
 1105               		.loc 1 1059 12 view .LVU248
1059:quantum/rgblight.c **** #    else
 1106               		.loc 1 1059 12 view .LVU249
 1107 0006 EC81      		ldd r30,Y+4
 1108 0008 F0E0      		ldi r31,0
 1109 000a E050      		subi r30,lo8(-(rgblight_effect_breathe_table))
 1110 000c F040      		sbci r31,hi8(-(rgblight_effect_breathe_table))
 1111               	/* #APP */
 1112               	 ;  1059 "quantum/rgblight.c" 1
 1113 000e 4491      		lpm r20, Z
 1114               		
 1115               	 ;  0 "" 2
 1116               	.LVL55:
1059:quantum/rgblight.c **** #    else
 1117               		.loc 1 1059 12 view .LVU250
1059:quantum/rgblight.c **** #    else
 1118               		.loc 1 1059 12 is_stmt 0 view .LVU251
 1119               	/* #NOAPP */
 1120               	.LBE35:
 1121               	.LBE36:
1074:quantum/rgblight.c ****     rgblight_sethsv_noeeprom_old(rgblight_config.hue, rgblight_config.sat, val);
 1122               		.loc 1 1074 5 is_stmt 1 view .LVU252
 1123 0010 E0E0      		ldi r30,lo8(rgblight_config)
 1124 0012 F0E0      		ldi r31,hi8(rgblight_config)
 1125 0014 6281      		ldd r22,Z+2
 1126 0016 8181      		ldd r24,Z+1
 1127               	.LVL56:
 1128               		.loc 1 1074 5 is_stmt 0 view .LVU253
 1129 0018 0E94 0000 		call rgblight_sethsv_noeeprom_old
 1130               	.LVL57:
1075:quantum/rgblight.c ****     anim->pos = (anim->pos + 1);
 1131               		.loc 1 1075 5 is_stmt 1 view .LVU254
 1132               		.loc 1 1075 28 is_stmt 0 view .LVU255
 1133 001c 8C81      		ldd r24,Y+4
 1134 001e 8F5F      		subi r24,lo8(-(1))
 1135               		.loc 1 1075 15 view .LVU256
 1136 0020 8C83      		std Y+4,r24
 1137               	/* epilogue start */
1076:quantum/rgblight.c **** }
 1138               		.loc 1 1076 1 view .LVU257
 1139 0022 DF91      		pop r29
 1140 0024 CF91      		pop r28
 1141               	.LVL58:
 1142               		.loc 1 1076 1 view .LVU258
 1143 0026 0895      		ret
 1144               		.cfi_endproc
 1145               	.LFE175:
 1147               		.section	.text.rgblight_effect_rainbow_mood,"ax",@progbits
 1148               	.global	rgblight_effect_rainbow_mood
 1150               	rgblight_effect_rainbow_mood:
 1151               	.LVL59:
 1152               	.LFB176:
1077:quantum/rgblight.c **** #endif
1078:quantum/rgblight.c **** 
1079:quantum/rgblight.c **** #ifdef RGBLIGHT_EFFECT_RAINBOW_MOOD
1080:quantum/rgblight.c **** __attribute__((weak)) const uint8_t RGBLED_RAINBOW_MOOD_INTERVALS[] PROGMEM = {120, 60, 30};
1081:quantum/rgblight.c **** 
1082:quantum/rgblight.c **** void rgblight_effect_rainbow_mood(animation_status_t *anim) {
 1153               		.loc 1 1082 61 is_stmt 1 view -0
 1154               		.cfi_startproc
 1155               		.loc 1 1082 61 is_stmt 0 view .LVU260
 1156 0000 CF93      		push r28
 1157               	.LCFI12:
 1158               		.cfi_def_cfa_offset 3
 1159               		.cfi_offset 28, -2
 1160 0002 DF93      		push r29
 1161               	.LCFI13:
 1162               		.cfi_def_cfa_offset 4
 1163               		.cfi_offset 29, -3
 1164               	/* prologue: function */
 1165               	/* frame size = 0 */
 1166               	/* stack size = 2 */
 1167               	.L__stack_usage = 2
 1168 0004 EC01      		movw r28,r24
1083:quantum/rgblight.c ****     rgblight_sethsv_noeeprom_old(anim->current_hue, rgblight_config.sat, rgblight_config.val);
 1169               		.loc 1 1083 5 is_stmt 1 view .LVU261
 1170 0006 E0E0      		ldi r30,lo8(rgblight_config)
 1171 0008 F0E0      		ldi r31,hi8(rgblight_config)
 1172 000a 4381      		ldd r20,Z+3
 1173 000c 6281      		ldd r22,Z+2
 1174 000e 8C81      		ldd r24,Y+4
 1175               	.LVL60:
 1176               		.loc 1 1083 5 is_stmt 0 view .LVU262
 1177 0010 0E94 0000 		call rgblight_sethsv_noeeprom_old
 1178               	.LVL61:
1084:quantum/rgblight.c ****     anim->current_hue++;
 1179               		.loc 1 1084 5 is_stmt 1 view .LVU263
 1180               		.loc 1 1084 22 is_stmt 0 view .LVU264
 1181 0014 8C81      		ldd r24,Y+4
 1182 0016 8F5F      		subi r24,lo8(-(1))
 1183 0018 8C83      		std Y+4,r24
 1184               	/* epilogue start */
1085:quantum/rgblight.c **** }
 1185               		.loc 1 1085 1 view .LVU265
 1186 001a DF91      		pop r29
 1187 001c CF91      		pop r28
 1188               	.LVL62:
 1189               		.loc 1 1085 1 view .LVU266
 1190 001e 0895      		ret
 1191               		.cfi_endproc
 1192               	.LFE176:
 1194               		.section	.text.rgblight_effect_rgbtest,"ax",@progbits
 1195               	.global	rgblight_effect_rgbtest
 1197               	rgblight_effect_rgbtest:
 1198               	.LVL63:
 1199               	.LFB181:
1086:quantum/rgblight.c **** #endif
1087:quantum/rgblight.c **** 
1088:quantum/rgblight.c **** #ifdef RGBLIGHT_EFFECT_RAINBOW_SWIRL
1089:quantum/rgblight.c **** #    ifndef RGBLIGHT_RAINBOW_SWIRL_RANGE
1090:quantum/rgblight.c **** #        define RGBLIGHT_RAINBOW_SWIRL_RANGE 255
1091:quantum/rgblight.c **** #    endif
1092:quantum/rgblight.c **** 
1093:quantum/rgblight.c **** __attribute__((weak)) const uint8_t RGBLED_RAINBOW_SWIRL_INTERVALS[] PROGMEM = {100, 50, 20};
1094:quantum/rgblight.c **** 
1095:quantum/rgblight.c **** void rgblight_effect_rainbow_swirl(animation_status_t *anim) {
1096:quantum/rgblight.c ****     uint8_t hue;
1097:quantum/rgblight.c ****     uint8_t i;
1098:quantum/rgblight.c **** 
1099:quantum/rgblight.c ****     for (i = 0; i < rgblight_ranges.effect_num_leds; i++) {
1100:quantum/rgblight.c ****         hue = (RGBLIGHT_RAINBOW_SWIRL_RANGE / rgblight_ranges.effect_num_leds * i + anim->current_h
1101:quantum/rgblight.c ****         sethsv(hue, rgblight_config.sat, rgblight_config.val, (LED_TYPE *)&led[i + rgblight_ranges.
1102:quantum/rgblight.c ****     }
1103:quantum/rgblight.c ****     rgblight_set();
1104:quantum/rgblight.c **** 
1105:quantum/rgblight.c ****     if (anim->delta % 2) {
1106:quantum/rgblight.c ****         anim->current_hue++;
1107:quantum/rgblight.c ****     } else {
1108:quantum/rgblight.c ****         anim->current_hue--;
1109:quantum/rgblight.c ****     }
1110:quantum/rgblight.c **** }
1111:quantum/rgblight.c **** #endif
1112:quantum/rgblight.c **** 
1113:quantum/rgblight.c **** #ifdef RGBLIGHT_EFFECT_SNAKE
1114:quantum/rgblight.c **** __attribute__((weak)) const uint8_t RGBLED_SNAKE_INTERVALS[] PROGMEM = {100, 50, 20};
1115:quantum/rgblight.c **** 
1116:quantum/rgblight.c **** void rgblight_effect_snake(animation_status_t *anim) {
1117:quantum/rgblight.c ****     static uint8_t pos = 0;
1118:quantum/rgblight.c ****     uint8_t        i, j;
1119:quantum/rgblight.c ****     int8_t         k;
1120:quantum/rgblight.c ****     int8_t         increment = 1;
1121:quantum/rgblight.c **** 
1122:quantum/rgblight.c ****     if (anim->delta % 2) {
1123:quantum/rgblight.c ****         increment = -1;
1124:quantum/rgblight.c ****     }
1125:quantum/rgblight.c **** 
1126:quantum/rgblight.c **** #    if defined(RGBLIGHT_SPLIT) && !defined(RGBLIGHT_SPLIT_NO_ANIMATION_SYNC)
1127:quantum/rgblight.c ****     if (anim->pos == 0) {  // restart signal
1128:quantum/rgblight.c ****         if (increment == 1) {
1129:quantum/rgblight.c ****             pos = rgblight_ranges.effect_num_leds - 1;
1130:quantum/rgblight.c ****         } else {
1131:quantum/rgblight.c ****             pos = 0;
1132:quantum/rgblight.c ****         }
1133:quantum/rgblight.c ****         anim->pos = 1;
1134:quantum/rgblight.c ****     }
1135:quantum/rgblight.c **** #    endif
1136:quantum/rgblight.c **** 
1137:quantum/rgblight.c ****     for (i = 0; i < rgblight_ranges.effect_num_leds; i++) {
1138:quantum/rgblight.c ****         LED_TYPE *ledp = led + i + rgblight_ranges.effect_start_pos;
1139:quantum/rgblight.c ****         ledp->r        = 0;
1140:quantum/rgblight.c ****         ledp->g        = 0;
1141:quantum/rgblight.c ****         ledp->b        = 0;
1142:quantum/rgblight.c **** #    ifdef RGBW
1143:quantum/rgblight.c ****         ledp->w = 0;
1144:quantum/rgblight.c **** #    endif
1145:quantum/rgblight.c ****         for (j = 0; j < RGBLIGHT_EFFECT_SNAKE_LENGTH; j++) {
1146:quantum/rgblight.c ****             k = pos + j * increment;
1147:quantum/rgblight.c ****             if (k > RGBLED_NUM) {
1148:quantum/rgblight.c ****                 k = k % RGBLED_NUM;
1149:quantum/rgblight.c ****             }
1150:quantum/rgblight.c ****             if (k < 0) {
1151:quantum/rgblight.c ****                 k = k + rgblight_ranges.effect_num_leds;
1152:quantum/rgblight.c ****             }
1153:quantum/rgblight.c ****             if (i == k) {
1154:quantum/rgblight.c ****                 sethsv(rgblight_config.hue, rgblight_config.sat, (uint8_t)(rgblight_config.val * (R
1155:quantum/rgblight.c ****             }
1156:quantum/rgblight.c ****         }
1157:quantum/rgblight.c ****     }
1158:quantum/rgblight.c ****     rgblight_set();
1159:quantum/rgblight.c ****     if (increment == 1) {
1160:quantum/rgblight.c ****         if (pos - 1 < 0) {
1161:quantum/rgblight.c ****             pos = rgblight_ranges.effect_num_leds - 1;
1162:quantum/rgblight.c **** #    if defined(RGBLIGHT_SPLIT) && !defined(RGBLIGHT_SPLIT_NO_ANIMATION_SYNC)
1163:quantum/rgblight.c ****             anim->pos = 0;
1164:quantum/rgblight.c **** #    endif
1165:quantum/rgblight.c ****         } else {
1166:quantum/rgblight.c ****             pos -= 1;
1167:quantum/rgblight.c **** #    if defined(RGBLIGHT_SPLIT) && !defined(RGBLIGHT_SPLIT_NO_ANIMATION_SYNC)
1168:quantum/rgblight.c ****             anim->pos = 1;
1169:quantum/rgblight.c **** #    endif
1170:quantum/rgblight.c ****         }
1171:quantum/rgblight.c ****     } else {
1172:quantum/rgblight.c ****         pos = (pos + 1) % rgblight_ranges.effect_num_leds;
1173:quantum/rgblight.c **** #    if defined(RGBLIGHT_SPLIT) && !defined(RGBLIGHT_SPLIT_NO_ANIMATION_SYNC)
1174:quantum/rgblight.c ****         anim->pos = pos;
1175:quantum/rgblight.c **** #    endif
1176:quantum/rgblight.c ****     }
1177:quantum/rgblight.c **** }
1178:quantum/rgblight.c **** #endif
1179:quantum/rgblight.c **** 
1180:quantum/rgblight.c **** #ifdef RGBLIGHT_EFFECT_KNIGHT
1181:quantum/rgblight.c **** __attribute__((weak)) const uint8_t RGBLED_KNIGHT_INTERVALS[] PROGMEM = {127, 63, 31};
1182:quantum/rgblight.c **** 
1183:quantum/rgblight.c **** void rgblight_effect_knight(animation_status_t *anim) {
1184:quantum/rgblight.c ****     static int8_t low_bound  = 0;
1185:quantum/rgblight.c ****     static int8_t high_bound = RGBLIGHT_EFFECT_KNIGHT_LENGTH - 1;
1186:quantum/rgblight.c ****     static int8_t increment  = 1;
1187:quantum/rgblight.c ****     uint8_t       i, cur;
1188:quantum/rgblight.c **** 
1189:quantum/rgblight.c **** #    if defined(RGBLIGHT_SPLIT) && !defined(RGBLIGHT_SPLIT_NO_ANIMATION_SYNC)
1190:quantum/rgblight.c ****     if (anim->pos == 0) {  // restart signal
1191:quantum/rgblight.c ****         anim->pos  = 1;
1192:quantum/rgblight.c ****         low_bound  = 0;
1193:quantum/rgblight.c ****         high_bound = RGBLIGHT_EFFECT_KNIGHT_LENGTH - 1;
1194:quantum/rgblight.c ****         increment  = 1;
1195:quantum/rgblight.c ****     }
1196:quantum/rgblight.c **** #    endif
1197:quantum/rgblight.c ****     // Set all the LEDs to 0
1198:quantum/rgblight.c ****     for (i = rgblight_ranges.effect_start_pos; i < rgblight_ranges.effect_end_pos; i++) {
1199:quantum/rgblight.c ****         led[i].r = 0;
1200:quantum/rgblight.c ****         led[i].g = 0;
1201:quantum/rgblight.c ****         led[i].b = 0;
1202:quantum/rgblight.c **** #    ifdef RGBW
1203:quantum/rgblight.c ****         led[i].w = 0;
1204:quantum/rgblight.c **** #    endif
1205:quantum/rgblight.c ****     }
1206:quantum/rgblight.c ****     // Determine which LEDs should be lit up
1207:quantum/rgblight.c ****     for (i = 0; i < RGBLIGHT_EFFECT_KNIGHT_LED_NUM; i++) {
1208:quantum/rgblight.c ****         cur = (i + RGBLIGHT_EFFECT_KNIGHT_OFFSET) % rgblight_ranges.effect_num_leds + rgblight_rang
1209:quantum/rgblight.c **** 
1210:quantum/rgblight.c ****         if (i >= low_bound && i <= high_bound) {
1211:quantum/rgblight.c ****             sethsv(rgblight_config.hue, rgblight_config.sat, rgblight_config.val, (LED_TYPE *)&led[
1212:quantum/rgblight.c ****         } else {
1213:quantum/rgblight.c ****             led[cur].r = 0;
1214:quantum/rgblight.c ****             led[cur].g = 0;
1215:quantum/rgblight.c ****             led[cur].b = 0;
1216:quantum/rgblight.c **** #    ifdef RGBW
1217:quantum/rgblight.c ****             led[cur].w = 0;
1218:quantum/rgblight.c **** #    endif
1219:quantum/rgblight.c ****         }
1220:quantum/rgblight.c ****     }
1221:quantum/rgblight.c ****     rgblight_set();
1222:quantum/rgblight.c **** 
1223:quantum/rgblight.c ****     // Move from low_bound to high_bound changing the direction we increment each
1224:quantum/rgblight.c ****     // time a boundary is hit.
1225:quantum/rgblight.c ****     low_bound += increment;
1226:quantum/rgblight.c ****     high_bound += increment;
1227:quantum/rgblight.c **** 
1228:quantum/rgblight.c ****     if (high_bound <= 0 || low_bound >= RGBLIGHT_EFFECT_KNIGHT_LED_NUM - 1) {
1229:quantum/rgblight.c ****         increment = -increment;
1230:quantum/rgblight.c **** #    if defined(RGBLIGHT_SPLIT) && !defined(RGBLIGHT_SPLIT_NO_ANIMATION_SYNC)
1231:quantum/rgblight.c ****         if (increment == 1) {
1232:quantum/rgblight.c ****             anim->pos = 0;
1233:quantum/rgblight.c ****         }
1234:quantum/rgblight.c **** #    endif
1235:quantum/rgblight.c ****     }
1236:quantum/rgblight.c **** }
1237:quantum/rgblight.c **** #endif
1238:quantum/rgblight.c **** 
1239:quantum/rgblight.c **** #ifdef RGBLIGHT_EFFECT_CHRISTMAS
1240:quantum/rgblight.c **** #    define CUBED(x) ((x) * (x) * (x))
1241:quantum/rgblight.c **** 
1242:quantum/rgblight.c **** /**
1243:quantum/rgblight.c ****  * Christmas lights effect, with a smooth animation between red & green.
1244:quantum/rgblight.c ****  */
1245:quantum/rgblight.c **** void rgblight_effect_christmas(animation_status_t *anim) {
1246:quantum/rgblight.c ****     static int8_t increment = 1;
1247:quantum/rgblight.c ****     const uint8_t max_pos   = 32;
1248:quantum/rgblight.c ****     const uint8_t hue_green = 85;
1249:quantum/rgblight.c **** 
1250:quantum/rgblight.c ****     uint32_t xa;
1251:quantum/rgblight.c ****     uint8_t  hue, val;
1252:quantum/rgblight.c ****     uint8_t  i;
1253:quantum/rgblight.c **** 
1254:quantum/rgblight.c ****     // The effect works by animating anim->pos from 0 to 32 and back to 0.
1255:quantum/rgblight.c ****     // The pos is used in a cubic bezier formula to ease-in-out between red and green, leaving the 
1256:quantum/rgblight.c ****     xa  = CUBED((uint32_t)anim->pos);
1257:quantum/rgblight.c ****     hue = ((uint32_t)hue_green) * xa / (xa + CUBED((uint32_t)(max_pos - anim->pos)));
1258:quantum/rgblight.c ****     // Additionally, these interpolated colors get shown with a slightly darker value, to make them
1259:quantum/rgblight.c ****     val = 255 - (3 * (hue < hue_green / 2 ? hue : hue_green - hue) / 2);
1260:quantum/rgblight.c **** 
1261:quantum/rgblight.c ****     for (i = 0; i < rgblight_ranges.effect_num_leds; i++) {
1262:quantum/rgblight.c ****         uint8_t local_hue = (i / RGBLIGHT_EFFECT_CHRISTMAS_STEP) % 2 ? hue : hue_green - hue;
1263:quantum/rgblight.c ****         sethsv(local_hue, rgblight_config.sat, val, (LED_TYPE *)&led[i + rgblight_ranges.effect_sta
1264:quantum/rgblight.c ****     }
1265:quantum/rgblight.c ****     rgblight_set();
1266:quantum/rgblight.c **** 
1267:quantum/rgblight.c ****     if (anim->pos == 0) {
1268:quantum/rgblight.c ****         increment = 1;
1269:quantum/rgblight.c ****     } else if (anim->pos == max_pos) {
1270:quantum/rgblight.c ****         increment = -1;
1271:quantum/rgblight.c ****     }
1272:quantum/rgblight.c ****     anim->pos += increment;
1273:quantum/rgblight.c **** }
1274:quantum/rgblight.c **** #endif
1275:quantum/rgblight.c **** 
1276:quantum/rgblight.c **** #ifdef RGBLIGHT_EFFECT_RGB_TEST
1277:quantum/rgblight.c **** __attribute__((weak)) const uint16_t RGBLED_RGBTEST_INTERVALS[] PROGMEM = {1024};
1278:quantum/rgblight.c **** 
1279:quantum/rgblight.c **** void rgblight_effect_rgbtest(animation_status_t *anim) {
 1200               		.loc 1 1279 56 is_stmt 1 view -0
 1201               		.cfi_startproc
 1202               		.loc 1 1279 56 is_stmt 0 view .LVU268
 1203 0000 0F93      		push r16
 1204               	.LCFI14:
 1205               		.cfi_def_cfa_offset 3
 1206               		.cfi_offset 16, -2
 1207 0002 1F93      		push r17
 1208               	.LCFI15:
 1209               		.cfi_def_cfa_offset 4
 1210               		.cfi_offset 17, -3
 1211 0004 CF93      		push r28
 1212               	.LCFI16:
 1213               		.cfi_def_cfa_offset 5
 1214               		.cfi_offset 28, -4
 1215 0006 DF93      		push r29
 1216               	.LCFI17:
 1217               		.cfi_def_cfa_offset 6
 1218               		.cfi_offset 29, -5
 1219 0008 00D0      		rcall .
 1220 000a 0F92      		push __tmp_reg__
 1221               	.LCFI18:
 1222               		.cfi_def_cfa_offset 9
 1223 000c CDB7      		in r28,__SP_L__
 1224 000e DEB7      		in r29,__SP_H__
 1225               	.LCFI19:
 1226               		.cfi_def_cfa_register 28
 1227               	/* prologue: function */
 1228               	/* frame size = 3 */
 1229               	/* stack size = 7 */
 1230               	.L__stack_usage = 7
 1231 0010 8C01      		movw r16,r24
1280:quantum/rgblight.c ****     static uint8_t maxval = 0;
 1232               		.loc 1 1280 5 is_stmt 1 view .LVU269
1281:quantum/rgblight.c ****     uint8_t        g;
 1233               		.loc 1 1281 5 view .LVU270
1282:quantum/rgblight.c ****     uint8_t        r;
 1234               		.loc 1 1282 5 view .LVU271
1283:quantum/rgblight.c ****     uint8_t        b;
 1235               		.loc 1 1283 5 view .LVU272
1284:quantum/rgblight.c **** 
1285:quantum/rgblight.c ****     if (maxval == 0) {
 1236               		.loc 1 1285 5 view .LVU273
 1237               		.loc 1 1285 8 is_stmt 0 view .LVU274
 1238 0012 8091 0000 		lds r24,maxval.3469
 1239               	.LVL64:
 1240               		.loc 1 1285 8 view .LVU275
 1241 0016 8111      		cpse r24,__zero_reg__
 1242 0018 00C0      		rjmp .L63
 1243               	.LBB40:
1286:quantum/rgblight.c ****         LED_TYPE tmp_led;
 1244               		.loc 1 1286 9 is_stmt 1 view .LVU276
1287:quantum/rgblight.c ****         sethsv(0, 255, RGBLIGHT_LIMIT_VAL, &tmp_led);
 1245               		.loc 1 1287 9 view .LVU277
 1246               	.LVL65:
 1247               	.LBB41:
 1248               	.LBI41:
 154:quantum/rgblight.c **** 
 1249               		.loc 1 154 6 view .LVU278
 1250               	.LBB42:
 154:quantum/rgblight.c **** 
 1251               		.loc 1 154 70 view .LVU279
 1252 001a 9E01      		movw r18,r28
 1253 001c 2F5F      		subi r18,-1
 1254 001e 3F4F      		sbci r19,-1
 1255 0020 4FEF      		ldi r20,lo8(-1)
 1256 0022 6FEF      		ldi r22,lo8(-1)
 1257 0024 0E94 0000 		call sethsv_raw
 1258               	.LVL66:
 154:quantum/rgblight.c **** 
 1259               		.loc 1 154 70 is_stmt 0 view .LVU280
 1260               	.LBE42:
 1261               	.LBE41:
1288:quantum/rgblight.c ****         maxval = tmp_led.r;
 1262               		.loc 1 1288 9 is_stmt 1 view .LVU281
 1263               		.loc 1 1288 16 is_stmt 0 view .LVU282
 1264 0028 8A81      		ldd r24,Y+2
 1265 002a 8093 0000 		sts maxval.3469,r24
 1266               	.L63:
 1267               	.LBE40:
1289:quantum/rgblight.c ****     }
1290:quantum/rgblight.c ****     g = r = b = 0;
 1268               		.loc 1 1290 5 is_stmt 1 view .LVU283
 1269               	.LVL67:
1291:quantum/rgblight.c ****     switch (anim->pos) {
 1270               		.loc 1 1291 5 view .LVU284
 1271               		.loc 1 1291 17 is_stmt 0 view .LVU285
 1272 002e F801      		movw r30,r16
 1273 0030 6481      		ldd r22,Z+4
 1274               		.loc 1 1291 5 view .LVU286
 1275 0032 6130      		cpi r22,lo8(1)
 1276 0034 01F0      		breq .L64
1292:quantum/rgblight.c ****         case 0:
1293:quantum/rgblight.c ****             r = maxval;
 1277               		.loc 1 1293 15 view .LVU287
 1278 0036 8091 0000 		lds r24,maxval.3469
 1279               	.LVL68:
1294:quantum/rgblight.c ****             break;
 1280               		.loc 1 1294 13 is_stmt 1 view .LVU288
1290:quantum/rgblight.c ****     switch (anim->pos) {
 1281               		.loc 1 1290 15 is_stmt 0 view .LVU289
 1282 003a 40E0      		ldi r20,0
1291:quantum/rgblight.c ****         case 0:
 1283               		.loc 1 1291 5 view .LVU290
 1284 003c 6623      		tst r22
 1285 003e 01F0      		breq .L67
1290:quantum/rgblight.c ****     switch (anim->pos) {
 1286               		.loc 1 1290 15 view .LVU291
 1287 0040 40E0      		ldi r20,0
1291:quantum/rgblight.c ****         case 0:
 1288               		.loc 1 1291 5 view .LVU292
 1289 0042 6230      		cpi r22,lo8(2)
 1290 0044 01F4      		brne .L68
1295:quantum/rgblight.c ****         case 1:
1296:quantum/rgblight.c ****             g = maxval;
1297:quantum/rgblight.c ****             break;
1298:quantum/rgblight.c ****         case 2:
1299:quantum/rgblight.c ****             b = maxval;
 1291               		.loc 1 1299 13 is_stmt 1 view .LVU293
 1292               		.loc 1 1299 15 is_stmt 0 view .LVU294
 1293 0046 4091 0000 		lds r20,maxval.3469
 1294               	.L68:
 1295               	.LVL69:
1300:quantum/rgblight.c ****             break;
 1296               		.loc 1 1300 13 is_stmt 1 view .LVU295
1290:quantum/rgblight.c ****     switch (anim->pos) {
 1297               		.loc 1 1290 11 is_stmt 0 view .LVU296
 1298 004a 80E0      		ldi r24,0
 1299               	.LVL70:
1290:quantum/rgblight.c ****     switch (anim->pos) {
 1300               		.loc 1 1290 7 view .LVU297
 1301 004c 60E0      		ldi r22,0
 1302               		.loc 1 1300 13 view .LVU298
 1303 004e 00C0      		rjmp .L67
 1304               	.LVL71:
 1305               	.L64:
1296:quantum/rgblight.c ****             break;
 1306               		.loc 1 1296 13 is_stmt 1 view .LVU299
1296:quantum/rgblight.c ****             break;
 1307               		.loc 1 1296 15 is_stmt 0 view .LVU300
 1308 0050 6091 0000 		lds r22,maxval.3469
 1309               	.LVL72:
1297:quantum/rgblight.c ****         case 2:
 1310               		.loc 1 1297 13 is_stmt 1 view .LVU301
1290:quantum/rgblight.c ****     switch (anim->pos) {
 1311               		.loc 1 1290 15 is_stmt 0 view .LVU302
 1312 0054 40E0      		ldi r20,0
1290:quantum/rgblight.c ****     switch (anim->pos) {
 1313               		.loc 1 1290 11 view .LVU303
 1314 0056 80E0      		ldi r24,0
 1315               	.LVL73:
 1316               	.L67:
1301:quantum/rgblight.c ****     }
1302:quantum/rgblight.c ****     rgblight_setrgb(r, g, b);
 1317               		.loc 1 1302 5 is_stmt 1 view .LVU304
 1318 0058 0E94 0000 		call rgblight_setrgb
 1319               	.LVL74:
1303:quantum/rgblight.c ****     anim->pos = (anim->pos + 1) % 3;
 1320               		.loc 1 1303 5 view .LVU305
 1321               		.loc 1 1303 22 is_stmt 0 view .LVU306
 1322 005c F801      		movw r30,r16
 1323 005e 8481      		ldd r24,Z+4
 1324 0060 90E0      		ldi r25,0
 1325               		.loc 1 1303 28 view .LVU307
 1326 0062 0196      		adiw r24,1
 1327               		.loc 1 1303 33 view .LVU308
 1328 0064 63E0      		ldi r22,lo8(3)
 1329 0066 70E0      		ldi r23,0
 1330 0068 0E94 0000 		call __divmodhi4
 1331               		.loc 1 1303 15 view .LVU309
 1332 006c 8483      		std Z+4,r24
 1333               	/* epilogue start */
1304:quantum/rgblight.c **** }
 1334               		.loc 1 1304 1 view .LVU310
 1335 006e 0F90      		pop __tmp_reg__
 1336 0070 0F90      		pop __tmp_reg__
 1337 0072 0F90      		pop __tmp_reg__
 1338 0074 DF91      		pop r29
 1339 0076 CF91      		pop r28
 1340 0078 1F91      		pop r17
 1341 007a 0F91      		pop r16
 1342               	.LVL75:
 1343               		.loc 1 1304 1 view .LVU311
 1344 007c 0895      		ret
 1345               		.cfi_endproc
 1346               	.LFE181:
 1348               		.section	.text.rgblight_sethsv_eeprom_helper,"ax",@progbits
 1349               	.global	rgblight_sethsv_eeprom_helper
 1351               	rgblight_sethsv_eeprom_helper:
 1352               	.LVL76:
 1353               	.LFB144:
 471:quantum/rgblight.c ****     if (rgblight_config.enable) {
 1354               		.loc 1 471 97 is_stmt 1 view -0
 1355               		.cfi_startproc
 471:quantum/rgblight.c ****     if (rgblight_config.enable) {
 1356               		.loc 1 471 97 is_stmt 0 view .LVU313
 1357 0000 AF92      		push r10
 1358               	.LCFI20:
 1359               		.cfi_def_cfa_offset 3
 1360               		.cfi_offset 10, -2
 1361 0002 BF92      		push r11
 1362               	.LCFI21:
 1363               		.cfi_def_cfa_offset 4
 1364               		.cfi_offset 11, -3
 1365 0004 CF92      		push r12
 1366               	.LCFI22:
 1367               		.cfi_def_cfa_offset 5
 1368               		.cfi_offset 12, -4
 1369 0006 DF92      		push r13
 1370               	.LCFI23:
 1371               		.cfi_def_cfa_offset 6
 1372               		.cfi_offset 13, -5
 1373 0008 EF92      		push r14
 1374               	.LCFI24:
 1375               		.cfi_def_cfa_offset 7
 1376               		.cfi_offset 14, -6
 1377 000a FF92      		push r15
 1378               	.LCFI25:
 1379               		.cfi_def_cfa_offset 8
 1380               		.cfi_offset 15, -7
 1381 000c 0F93      		push r16
 1382               	.LCFI26:
 1383               		.cfi_def_cfa_offset 9
 1384               		.cfi_offset 16, -8
 1385 000e 1F93      		push r17
 1386               	.LCFI27:
 1387               		.cfi_def_cfa_offset 10
 1388               		.cfi_offset 17, -9
 1389 0010 CF93      		push r28
 1390               	.LCFI28:
 1391               		.cfi_def_cfa_offset 11
 1392               		.cfi_offset 28, -10
 1393 0012 DF93      		push r29
 1394               	.LCFI29:
 1395               		.cfi_def_cfa_offset 12
 1396               		.cfi_offset 29, -11
 1397 0014 00D0      		rcall .
 1398 0016 0F92      		push __tmp_reg__
 1399               	.LCFI30:
 1400               		.cfi_def_cfa_offset 15
 1401 0018 CDB7      		in r28,__SP_L__
 1402 001a DEB7      		in r29,__SP_H__
 1403               	.LCFI31:
 1404               		.cfi_def_cfa_register 28
 1405               	/* prologue: function */
 1406               	/* frame size = 3 */
 1407               	/* stack size = 13 */
 1408               	.L__stack_usage = 13
 1409 001c 182F      		mov r17,r24
 1410 001e F62E      		mov r15,r22
 1411 0020 042F      		mov r16,r20
 1412 0022 E22E      		mov r14,r18
 472:quantum/rgblight.c ****         rgblight_status.base_mode = mode_base_table[rgblight_config.mode];
 1413               		.loc 1 472 5 is_stmt 1 view .LVU314
 472:quantum/rgblight.c ****         rgblight_status.base_mode = mode_base_table[rgblight_config.mode];
 1414               		.loc 1 472 9 is_stmt 0 view .LVU315
 1415 0024 9091 0000 		lds r25,rgblight_config
 472:quantum/rgblight.c ****         rgblight_status.base_mode = mode_base_table[rgblight_config.mode];
 1416               		.loc 1 472 8 view .LVU316
 1417 0028 90FF      		sbrs r25,0
 1418 002a 00C0      		rjmp .L69
 473:quantum/rgblight.c ****         if (rgblight_config.mode == RGBLIGHT_MODE_STATIC_LIGHT) {
 1419               		.loc 1 473 9 is_stmt 1 view .LVU317
 473:quantum/rgblight.c ****         if (rgblight_config.mode == RGBLIGHT_MODE_STATIC_LIGHT) {
 1420               		.loc 1 473 68 is_stmt 0 view .LVU318
 1421 002c E92F      		mov r30,r25
 1422 002e E695      		lsr r30
 1423 0030 AE2F      		mov r26,r30
 1424 0032 B0E0      		ldi r27,0
 473:quantum/rgblight.c ****         if (rgblight_config.mode == RGBLIGHT_MODE_STATIC_LIGHT) {
 1425               		.loc 1 473 52 view .LVU319
 1426 0034 A050      		subi r26,lo8(-(mode_base_table))
 1427 0036 B040      		sbci r27,hi8(-(mode_base_table))
 1428 0038 8C91      		ld r24,X
 1429               	.LVL77:
 473:quantum/rgblight.c ****         if (rgblight_config.mode == RGBLIGHT_MODE_STATIC_LIGHT) {
 1430               		.loc 1 473 35 view .LVU320
 1431 003a 8093 0000 		sts rgblight_status,r24
 474:quantum/rgblight.c ****             // same static color
 1432               		.loc 1 474 9 is_stmt 1 view .LVU321
 474:quantum/rgblight.c ****             // same static color
 1433               		.loc 1 474 34 is_stmt 0 view .LVU322
 1434 003e 9E7F      		andi r25,lo8(-2)
 474:quantum/rgblight.c ****             // same static color
 1435               		.loc 1 474 12 view .LVU323
 1436 0040 9230      		cpi r25,lo8(2)
 1437 0042 01F4      		brne .L72
 1438               	.LBB52:
 476:quantum/rgblight.c ****             sethsv(hue, sat, val, &tmp_led);
 1439               		.loc 1 476 13 is_stmt 1 view .LVU324
 477:quantum/rgblight.c ****             rgblight_setrgb(tmp_led.r, tmp_led.g, tmp_led.b);
 1440               		.loc 1 477 13 view .LVU325
 1441               	.LVL78:
 1442               	.LBB53:
 1443               	.LBI53:
 154:quantum/rgblight.c **** 
 1444               		.loc 1 154 6 view .LVU326
 1445               	.LBB54:
 154:quantum/rgblight.c **** 
 1446               		.loc 1 154 70 view .LVU327
 1447 0044 9E01      		movw r18,r28
 1448               	.LVL79:
 154:quantum/rgblight.c **** 
 1449               		.loc 1 154 70 is_stmt 0 view .LVU328
 1450 0046 2F5F      		subi r18,-1
 1451 0048 3F4F      		sbci r19,-1
 1452 004a 812F      		mov r24,r17
 1453 004c 0E94 0000 		call sethsv_raw
 1454               	.LVL80:
 154:quantum/rgblight.c **** 
 1455               		.loc 1 154 70 view .LVU329
 1456               	.LBE54:
 1457               	.LBE53:
 478:quantum/rgblight.c ****         } else {
 1458               		.loc 1 478 13 is_stmt 1 view .LVU330
 1459 0050 4B81      		ldd r20,Y+3
 1460 0052 6981      		ldd r22,Y+1
 1461 0054 8A81      		ldd r24,Y+2
 1462 0056 0E94 0000 		call rgblight_setrgb
 1463               	.LVL81:
 1464               	.L73:
 478:quantum/rgblight.c ****         } else {
 1465               		.loc 1 478 13 is_stmt 0 view .LVU331
 1466               	.LBE52:
 531:quantum/rgblight.c ****         rgblight_config.sat = sat;
 1467               		.loc 1 531 9 is_stmt 1 view .LVU332
 531:quantum/rgblight.c ****         rgblight_config.sat = sat;
 1468               		.loc 1 531 29 is_stmt 0 view .LVU333
 1469 005a 1093 0000 		sts rgblight_config+1,r17
 532:quantum/rgblight.c ****         rgblight_config.val = val;
 1470               		.loc 1 532 9 is_stmt 1 view .LVU334
 532:quantum/rgblight.c ****         rgblight_config.val = val;
 1471               		.loc 1 532 29 is_stmt 0 view .LVU335
 1472 005e F092 0000 		sts rgblight_config+2,r15
 533:quantum/rgblight.c ****         if (write_to_eeprom) {
 1473               		.loc 1 533 9 is_stmt 1 view .LVU336
 533:quantum/rgblight.c ****         if (write_to_eeprom) {
 1474               		.loc 1 533 29 is_stmt 0 view .LVU337
 1475 0062 0093 0000 		sts rgblight_config+3,r16
 534:quantum/rgblight.c ****             eeconfig_update_rgblight(rgblight_config.raw);
 1476               		.loc 1 534 9 is_stmt 1 view .LVU338
 534:quantum/rgblight.c ****             eeconfig_update_rgblight(rgblight_config.raw);
 1477               		.loc 1 534 12 is_stmt 0 view .LVU339
 1478 0066 EE20      		tst r14
 1479 0068 01F0      		breq .L69
 535:quantum/rgblight.c ****             dprintf("rgblight set hsv [EEPROM]: %u,%u,%u\n", rgblight_config.hue, rgblight_config.s
 1480               		.loc 1 535 13 is_stmt 1 view .LVU340
 1481 006a 6091 0000 		lds r22,rgblight_config
 1482 006e 7091 0000 		lds r23,rgblight_config+1
 1483 0072 8091 0000 		lds r24,rgblight_config+2
 1484 0076 9091 0000 		lds r25,rgblight_config+3
 1485 007a 0E94 0000 		call eeconfig_update_rgblight
 1486               	.LVL82:
 536:quantum/rgblight.c ****         } else {
 1487               		.loc 1 536 124 view .LVU341
 538:quantum/rgblight.c ****         }
 1488               		.loc 1 538 126 view .LVU342
 1489               	.L69:
 1490               	/* epilogue start */
 541:quantum/rgblight.c **** 
 1491               		.loc 1 541 1 is_stmt 0 view .LVU343
 1492 007e 0F90      		pop __tmp_reg__
 1493 0080 0F90      		pop __tmp_reg__
 1494 0082 0F90      		pop __tmp_reg__
 1495 0084 DF91      		pop r29
 1496 0086 CF91      		pop r28
 1497 0088 1F91      		pop r17
 1498               	.LVL83:
 541:quantum/rgblight.c **** 
 1499               		.loc 1 541 1 view .LVU344
 1500 008a 0F91      		pop r16
 1501               	.LVL84:
 541:quantum/rgblight.c **** 
 1502               		.loc 1 541 1 view .LVU345
 1503 008c FF90      		pop r15
 1504               	.LVL85:
 541:quantum/rgblight.c **** 
 1505               		.loc 1 541 1 view .LVU346
 1506 008e EF90      		pop r14
 1507               	.LVL86:
 541:quantum/rgblight.c **** 
 1508               		.loc 1 541 1 view .LVU347
 1509 0090 DF90      		pop r13
 1510 0092 CF90      		pop r12
 1511 0094 BF90      		pop r11
 1512 0096 AF90      		pop r10
 1513 0098 0895      		ret
 1514               	.LVL87:
 1515               	.L72:
 481:quantum/rgblight.c ****             }
 1516               		.loc 1 481 13 is_stmt 1 view .LVU348
 484:quantum/rgblight.c ****                 // breathing mode, ignore the change of val, use in memory value instead
 1517               		.loc 1 484 18 view .LVU349
 484:quantum/rgblight.c ****                 // breathing mode, ignore the change of val, use in memory value instead
 1518               		.loc 1 484 21 is_stmt 0 view .LVU350
 1519 009a 8230      		cpi r24,lo8(2)
 1520 009c 01F4      		brne .L74
 486:quantum/rgblight.c ****             }
 1521               		.loc 1 486 17 is_stmt 1 view .LVU351
 486:quantum/rgblight.c ****             }
 1522               		.loc 1 486 21 is_stmt 0 view .LVU352
 1523 009e 0091 0000 		lds r16,rgblight_config+3
 1524               	.LVL88:
 486:quantum/rgblight.c ****             }
 1525               		.loc 1 486 21 view .LVU353
 1526 00a2 00C0      		rjmp .L73
 1527               	.L74:
 490:quantum/rgblight.c ****                 // rainbow mood, ignore the change of hue
 1528               		.loc 1 490 18 is_stmt 1 view .LVU354
 490:quantum/rgblight.c ****                 // rainbow mood, ignore the change of hue
 1529               		.loc 1 490 21 is_stmt 0 view .LVU355
 1530 00a4 8630      		cpi r24,lo8(6)
 1531 00a6 01F4      		brne .L75
 1532               	.L76:
 492:quantum/rgblight.c ****             }
 1533               		.loc 1 492 17 is_stmt 1 view .LVU356
 492:quantum/rgblight.c ****             }
 1534               		.loc 1 492 21 is_stmt 0 view .LVU357
 1535 00a8 1091 0000 		lds r17,rgblight_config+1
 1536               	.LVL89:
 492:quantum/rgblight.c ****             }
 1537               		.loc 1 492 21 view .LVU358
 1538 00ac 00C0      		rjmp .L73
 1539               	.L75:
 496:quantum/rgblight.c ****                 // rainbow swirl, ignore the change of hue
 1540               		.loc 1 496 18 is_stmt 1 view .LVU359
 496:quantum/rgblight.c ****                 // rainbow swirl, ignore the change of hue
 1541               		.loc 1 496 21 is_stmt 0 view .LVU360
 1542 00ae 8930      		cpi r24,lo8(9)
 1543 00b0 01F0      		breq .L76
 502:quantum/rgblight.c ****                 // static gradient
 1544               		.loc 1 502 18 is_stmt 1 view .LVU361
 502:quantum/rgblight.c ****                 // static gradient
 1545               		.loc 1 502 21 is_stmt 0 view .LVU362
 1546 00b2 8931      		cpi r24,lo8(25)
 1547 00b4 01F4      		brne .L73
 1548               	.LBB55:
 504:quantum/rgblight.c ****                 bool    direction = (delta % 2) == 0;
 1549               		.loc 1 504 17 is_stmt 1 view .LVU363
 504:quantum/rgblight.c ****                 bool    direction = (delta % 2) == 0;
 1550               		.loc 1 504 25 is_stmt 0 view .LVU364
 1551 00b6 E951      		subi r30,lo8(-(-25))
 1552               	.LVL90:
 505:quantum/rgblight.c **** #    ifdef __AVR__
 1553               		.loc 1 505 17 is_stmt 1 view .LVU365
 505:quantum/rgblight.c **** #    ifdef __AVR__
 1554               		.loc 1 505 49 is_stmt 0 view .LVU366
 1555 00b8 8E2F      		mov r24,r30
 1556 00ba 8170      		andi r24,lo8(1)
 1557 00bc D82E      		mov r13,r24
 1558               	.LVL91:
 508:quantum/rgblight.c **** #    else
 1559               		.loc 1 508 17 is_stmt 1 view .LVU367
 1560               	.LBB56:
 508:quantum/rgblight.c **** #    else
 1561               		.loc 1 508 33 view .LVU368
 1562 00be E695      		lsr r30
 1563               	.LVL92:
 508:quantum/rgblight.c **** #    else
 1564               		.loc 1 508 33 is_stmt 0 view .LVU369
 1565 00c0 F0E0      		ldi r31,0
 1566 00c2 E050      		subi r30,lo8(-(RGBLED_GRADIENT_RANGES))
 1567 00c4 F040      		sbci r31,hi8(-(RGBLED_GRADIENT_RANGES))
 1568               	.LVL93:
 508:quantum/rgblight.c **** #    else
 1569               		.loc 1 508 33 is_stmt 1 view .LVU370
 508:quantum/rgblight.c **** #    else
 1570               		.loc 1 508 33 view .LVU371
 1571               	/* #APP */
 1572               	 ;  508 "quantum/rgblight.c" 1
 1573 00c6 A590      		lpm r10, Z+
 1574 00c8 B490      		lpm r11, Z
 1575               		
 1576               	 ;  0 "" 2
 1577               	.LVL94:
 508:quantum/rgblight.c **** #    else
 1578               		.loc 1 508 33 view .LVU372
 508:quantum/rgblight.c **** #    else
 1579               		.loc 1 508 33 is_stmt 0 view .LVU373
 1580               	/* #NOAPP */
 1581               	.LBE56:
 512:quantum/rgblight.c ****                     uint8_t _hue = ((uint16_t)i * (uint16_t)range) / rgblight_ranges.effect_num_led
 1582               		.loc 1 512 17 is_stmt 1 view .LVU374
 1583               	.LBB57:
 512:quantum/rgblight.c ****                     uint8_t _hue = ((uint16_t)i * (uint16_t)range) / rgblight_ranges.effect_num_led
 1584               		.loc 1 512 22 view .LVU375
 512:quantum/rgblight.c ****                     uint8_t _hue = ((uint16_t)i * (uint16_t)range) / rgblight_ranges.effect_num_led
 1585               		.loc 1 512 30 is_stmt 0 view .LVU376
 1586 00ca C12C      		mov r12,__zero_reg__
 1587               	.LBB58:
 513:quantum/rgblight.c ****                     if (direction) {
 1588               		.loc 1 513 49 view .LVU377
 1589 00cc BB24      		clr r11
 1590               	.LVL95:
 1591               	.L77:
 513:quantum/rgblight.c ****                     if (direction) {
 1592               		.loc 1 513 49 view .LVU378
 1593               	.LBE58:
 512:quantum/rgblight.c ****                     uint8_t _hue = ((uint16_t)i * (uint16_t)range) / rgblight_ranges.effect_num_led
 1594               		.loc 1 512 37 is_stmt 1 discriminator 1 view .LVU379
 512:quantum/rgblight.c ****                     uint8_t _hue = ((uint16_t)i * (uint16_t)range) / rgblight_ranges.effect_num_led
 1595               		.loc 1 512 56 is_stmt 0 discriminator 1 view .LVU380
 1596 00ce 6091 0000 		lds r22,rgblight_ranges+4
 512:quantum/rgblight.c ****                     uint8_t _hue = ((uint16_t)i * (uint16_t)range) / rgblight_ranges.effect_num_led
 1597               		.loc 1 512 17 discriminator 1 view .LVU381
 1598 00d2 C616      		cp r12,r22
 1599 00d4 00F0      		brlo .L80
 1600               	.LBE57:
 522:quantum/rgblight.c ****             }
 1601               		.loc 1 522 17 is_stmt 1 view .LVU382
 1602 00d6 0E94 0000 		call rgblight_set
 1603               	.LVL96:
 1604 00da 00C0      		rjmp .L73
 1605               	.L80:
 1606               	.LBB65:
 1607               	.LBB63:
 513:quantum/rgblight.c ****                     if (direction) {
 1608               		.loc 1 513 21 view .LVU383
 513:quantum/rgblight.c ****                     if (direction) {
 1609               		.loc 1 513 37 is_stmt 0 view .LVU384
 1610 00dc 2C2D      		mov r18,r12
 1611 00de 30E0      		ldi r19,0
 513:quantum/rgblight.c ****                     if (direction) {
 1612               		.loc 1 513 49 view .LVU385
 1613 00e0 A29E      		mul r10,r18
 1614 00e2 C001      		movw r24,r0
 1615 00e4 A39E      		mul r10,r19
 1616 00e6 900D      		add r25,r0
 1617 00e8 B29E      		mul r11,r18
 1618 00ea 900D      		add r25,r0
 1619 00ec 1124      		clr r1
 513:quantum/rgblight.c ****                     if (direction) {
 1620               		.loc 1 513 85 view .LVU386
 1621 00ee 70E0      		ldi r23,0
 513:quantum/rgblight.c ****                     if (direction) {
 1622               		.loc 1 513 68 view .LVU387
 1623 00f0 0E94 0000 		call __udivmodhi4
 1624               	.LVL97:
 514:quantum/rgblight.c ****                         _hue = hue + _hue;
 1625               		.loc 1 514 21 is_stmt 1 view .LVU388
 515:quantum/rgblight.c ****                     } else {
 1626               		.loc 1 515 30 is_stmt 0 view .LVU389
 1627 00f4 812F      		mov r24,r17
 514:quantum/rgblight.c ****                         _hue = hue + _hue;
 1628               		.loc 1 514 24 view .LVU390
 1629 00f6 D110      		cpse r13,__zero_reg__
 1630 00f8 00C0      		rjmp .L78
 515:quantum/rgblight.c ****                     } else {
 1631               		.loc 1 515 25 is_stmt 1 view .LVU391
 515:quantum/rgblight.c ****                     } else {
 1632               		.loc 1 515 30 is_stmt 0 view .LVU392
 1633 00fa 860F      		add r24,r22
 1634               	.LVL98:
 1635               	.L79:
 519:quantum/rgblight.c ****                     sethsv(_hue, sat, val, (LED_TYPE *)&led[i + rgblight_ranges.effect_start_pos]);
 1636               		.loc 1 519 98 is_stmt 1 discriminator 2 view .LVU393
 520:quantum/rgblight.c ****                 }
 1637               		.loc 1 520 21 discriminator 2 view .LVU394
 1638               	.LBB59:
 1639               	.LBI59:
 154:quantum/rgblight.c **** 
 1640               		.loc 1 154 6 discriminator 2 view .LVU395
 1641               	.LBB60:
 154:quantum/rgblight.c **** 
 1642               		.loc 1 154 70 discriminator 2 view .LVU396
 1643               	.LBE60:
 1644               	.LBE59:
 520:quantum/rgblight.c ****                 }
 1645               		.loc 1 520 80 is_stmt 0 discriminator 2 view .LVU397
 1646 00fc 4091 0000 		lds r20,rgblight_ranges+2
 520:quantum/rgblight.c ****                 }
 1647               		.loc 1 520 63 discriminator 2 view .LVU398
 1648 0100 420F      		add r20,r18
 1649 0102 532F      		mov r21,r19
 1650 0104 511D      		adc r21,__zero_reg__
 520:quantum/rgblight.c ****                 }
 1651               		.loc 1 520 21 discriminator 2 view .LVU399
 1652 0106 9A01      		movw r18,r20
 1653 0108 220F      		lsl r18
 1654 010a 331F      		rol r19
 1655 010c 240F      		add r18,r20
 1656 010e 351F      		adc r19,r21
 1657 0110 2050      		subi r18,lo8(-(led))
 1658 0112 3040      		sbci r19,hi8(-(led))
 1659               	.LBB62:
 1660               	.LBB61:
 154:quantum/rgblight.c **** 
 1661               		.loc 1 154 70 discriminator 2 view .LVU400
 1662 0114 402F      		mov r20,r16
 1663 0116 6F2D      		mov r22,r15
 1664 0118 0E94 0000 		call sethsv_raw
 1665               	.LVL99:
 154:quantum/rgblight.c **** 
 1666               		.loc 1 154 70 discriminator 2 view .LVU401
 1667               	.LBE61:
 1668               	.LBE62:
 1669               	.LBE63:
 512:quantum/rgblight.c ****                     uint8_t _hue = ((uint16_t)i * (uint16_t)range) / rgblight_ranges.effect_num_led
 1670               		.loc 1 512 74 is_stmt 1 discriminator 2 view .LVU402
 512:quantum/rgblight.c ****                     uint8_t _hue = ((uint16_t)i * (uint16_t)range) / rgblight_ranges.effect_num_led
 1671               		.loc 1 512 75 is_stmt 0 discriminator 2 view .LVU403
 1672 011c C394      		inc r12
 1673               	.LVL100:
 512:quantum/rgblight.c ****                     uint8_t _hue = ((uint16_t)i * (uint16_t)range) / rgblight_ranges.effect_num_led
 1674               		.loc 1 512 75 discriminator 2 view .LVU404
 1675 011e 00C0      		rjmp .L77
 1676               	.LVL101:
 1677               	.L78:
 1678               	.LBB64:
 517:quantum/rgblight.c ****                     }
 1679               		.loc 1 517 25 is_stmt 1 view .LVU405
 517:quantum/rgblight.c ****                     }
 1680               		.loc 1 517 30 is_stmt 0 view .LVU406
 1681 0120 861B      		sub r24,r22
 1682               	.LVL102:
 517:quantum/rgblight.c ****                     }
 1683               		.loc 1 517 30 view .LVU407
 1684 0122 00C0      		rjmp .L79
 1685               	.LBE64:
 1686               	.LBE65:
 1687               	.LBE55:
 1688               		.cfi_endproc
 1689               	.LFE144:
 1691               		.section	.text.rgblight_increase_hue_helper,"ax",@progbits
 1692               	.global	rgblight_increase_hue_helper
 1694               	rgblight_increase_hue_helper:
 1695               	.LVL103:
 1696               	.LFB119:
 406:quantum/rgblight.c ****     uint8_t hue = rgblight_config.hue + RGBLIGHT_HUE_STEP;
 1697               		.loc 1 406 57 is_stmt 1 view -0
 1698               		.cfi_startproc
 1699               	/* prologue: function */
 1700               	/* frame size = 0 */
 1701               	/* stack size = 0 */
 1702               	.L__stack_usage = 0
 407:quantum/rgblight.c ****     rgblight_sethsv_eeprom_helper(hue, rgblight_config.sat, rgblight_config.val, write_to_eeprom);
 1703               		.loc 1 407 5 view .LVU409
 408:quantum/rgblight.c **** }
 1704               		.loc 1 408 5 view .LVU410
 1705 0000 E0E0      		ldi r30,lo8(rgblight_config)
 1706 0002 F0E0      		ldi r31,hi8(rgblight_config)
 407:quantum/rgblight.c ****     rgblight_sethsv_eeprom_helper(hue, rgblight_config.sat, rgblight_config.val, write_to_eeprom);
 1707               		.loc 1 407 13 is_stmt 0 view .LVU411
 1708 0004 9181      		ldd r25,Z+1
 408:quantum/rgblight.c **** }
 1709               		.loc 1 408 5 view .LVU412
 1710 0006 282F      		mov r18,r24
 1711 0008 4381      		ldd r20,Z+3
 1712 000a 6281      		ldd r22,Z+2
 1713 000c 88E0      		ldi r24,lo8(8)
 1714               	.LVL104:
 408:quantum/rgblight.c **** }
 1715               		.loc 1 408 5 view .LVU413
 1716 000e 890F      		add r24,r25
 1717               	.LVL105:
 408:quantum/rgblight.c **** }
 1718               		.loc 1 408 5 view .LVU414
 1719 0010 0C94 0000 		jmp rgblight_sethsv_eeprom_helper
 1720               	.LVL106:
 408:quantum/rgblight.c **** }
 1721               		.loc 1 408 5 view .LVU415
 1722               		.cfi_endproc
 1723               	.LFE119:
 1725               		.section	.text.rgblight_increase_hue_noeeprom,"ax",@progbits
 1726               	.global	rgblight_increase_hue_noeeprom
 1728               	rgblight_increase_hue_noeeprom:
 1729               	.LFB120:
 410:quantum/rgblight.c **** void rgblight_increase_hue(void) { rgblight_increase_hue_helper(true); }
 1730               		.loc 1 410 43 is_stmt 1 view -0
 1731               		.cfi_startproc
 1732               	/* prologue: function */
 1733               	/* frame size = 0 */
 1734               	/* stack size = 0 */
 1735               	.L__stack_usage = 0
 410:quantum/rgblight.c **** void rgblight_increase_hue(void) { rgblight_increase_hue_helper(true); }
 1736               		.loc 1 410 45 view .LVU417
 1737 0000 80E0      		ldi r24,0
 1738 0002 0C94 0000 		jmp rgblight_increase_hue_helper
 1739               	.LVL107:
 1740               		.cfi_endproc
 1741               	.LFE120:
 1743               		.section	.text.rgblight_increase_hue,"ax",@progbits
 1744               	.global	rgblight_increase_hue
 1746               	rgblight_increase_hue:
 1747               	.LFB121:
 411:quantum/rgblight.c **** void rgblight_decrease_hue_helper(bool write_to_eeprom) {
 1748               		.loc 1 411 34 view -0
 1749               		.cfi_startproc
 1750               	/* prologue: function */
 1751               	/* frame size = 0 */
 1752               	/* stack size = 0 */
 1753               	.L__stack_usage = 0
 411:quantum/rgblight.c **** void rgblight_decrease_hue_helper(bool write_to_eeprom) {
 1754               		.loc 1 411 36 view .LVU419
 1755 0000 81E0      		ldi r24,lo8(1)
 1756 0002 0C94 0000 		jmp rgblight_increase_hue_helper
 1757               	.LVL108:
 1758               		.cfi_endproc
 1759               	.LFE121:
 1761               		.section	.text.rgblight_decrease_hue_helper,"ax",@progbits
 1762               	.global	rgblight_decrease_hue_helper
 1764               	rgblight_decrease_hue_helper:
 1765               	.LVL109:
 1766               	.LFB122:
 412:quantum/rgblight.c ****     uint8_t hue = rgblight_config.hue - RGBLIGHT_HUE_STEP;
 1767               		.loc 1 412 57 view -0
 1768               		.cfi_startproc
 1769               	/* prologue: function */
 1770               	/* frame size = 0 */
 1771               	/* stack size = 0 */
 1772               	.L__stack_usage = 0
 413:quantum/rgblight.c ****     rgblight_sethsv_eeprom_helper(hue, rgblight_config.sat, rgblight_config.val, write_to_eeprom);
 1773               		.loc 1 413 5 view .LVU421
 414:quantum/rgblight.c **** }
 1774               		.loc 1 414 5 view .LVU422
 1775 0000 E0E0      		ldi r30,lo8(rgblight_config)
 1776 0002 F0E0      		ldi r31,hi8(rgblight_config)
 413:quantum/rgblight.c ****     rgblight_sethsv_eeprom_helper(hue, rgblight_config.sat, rgblight_config.val, write_to_eeprom);
 1777               		.loc 1 413 13 is_stmt 0 view .LVU423
 1778 0004 9181      		ldd r25,Z+1
 414:quantum/rgblight.c **** }
 1779               		.loc 1 414 5 view .LVU424
 1780 0006 282F      		mov r18,r24
 1781 0008 4381      		ldd r20,Z+3
 1782 000a 6281      		ldd r22,Z+2
 1783 000c 88EF      		ldi r24,lo8(-8)
 1784               	.LVL110:
 414:quantum/rgblight.c **** }
 1785               		.loc 1 414 5 view .LVU425
 1786 000e 890F      		add r24,r25
 1787               	.LVL111:
 414:quantum/rgblight.c **** }
 1788               		.loc 1 414 5 view .LVU426
 1789 0010 0C94 0000 		jmp rgblight_sethsv_eeprom_helper
 1790               	.LVL112:
 414:quantum/rgblight.c **** }
 1791               		.loc 1 414 5 view .LVU427
 1792               		.cfi_endproc
 1793               	.LFE122:
 1795               		.section	.text.rgblight_decrease_hue_noeeprom,"ax",@progbits
 1796               	.global	rgblight_decrease_hue_noeeprom
 1798               	rgblight_decrease_hue_noeeprom:
 1799               	.LFB123:
 416:quantum/rgblight.c **** void rgblight_decrease_hue(void) { rgblight_decrease_hue_helper(true); }
 1800               		.loc 1 416 43 is_stmt 1 view -0
 1801               		.cfi_startproc
 1802               	/* prologue: function */
 1803               	/* frame size = 0 */
 1804               	/* stack size = 0 */
 1805               	.L__stack_usage = 0
 416:quantum/rgblight.c **** void rgblight_decrease_hue(void) { rgblight_decrease_hue_helper(true); }
 1806               		.loc 1 416 45 view .LVU429
 1807 0000 80E0      		ldi r24,0
 1808 0002 0C94 0000 		jmp rgblight_decrease_hue_helper
 1809               	.LVL113:
 1810               		.cfi_endproc
 1811               	.LFE123:
 1813               		.section	.text.rgblight_decrease_hue,"ax",@progbits
 1814               	.global	rgblight_decrease_hue
 1816               	rgblight_decrease_hue:
 1817               	.LFB124:
 417:quantum/rgblight.c **** void rgblight_increase_sat_helper(bool write_to_eeprom) {
 1818               		.loc 1 417 34 view -0
 1819               		.cfi_startproc
 1820               	/* prologue: function */
 1821               	/* frame size = 0 */
 1822               	/* stack size = 0 */
 1823               	.L__stack_usage = 0
 417:quantum/rgblight.c **** void rgblight_increase_sat_helper(bool write_to_eeprom) {
 1824               		.loc 1 417 36 view .LVU431
 1825 0000 81E0      		ldi r24,lo8(1)
 1826 0002 0C94 0000 		jmp rgblight_decrease_hue_helper
 1827               	.LVL114:
 1828               		.cfi_endproc
 1829               	.LFE124:
 1831               		.section	.text.rgblight_increase_sat_helper,"ax",@progbits
 1832               	.global	rgblight_increase_sat_helper
 1834               	rgblight_increase_sat_helper:
 1835               	.LVL115:
 1836               	.LFB125:
 418:quantum/rgblight.c ****     uint8_t sat = qadd8(rgblight_config.sat, RGBLIGHT_SAT_STEP);
 1837               		.loc 1 418 57 view -0
 1838               		.cfi_startproc
 1839               	/* prologue: function */
 1840               	/* frame size = 0 */
 1841               	/* stack size = 0 */
 1842               	.L__stack_usage = 0
 419:quantum/rgblight.c ****     rgblight_sethsv_eeprom_helper(rgblight_config.hue, sat, rgblight_config.val, write_to_eeprom);
 1843               		.loc 1 419 5 view .LVU433
 1844               	.LBB66:
 1845               	.LBI66:
 1846               		.file 2 "./lib/lib8tion/math8.h"
   1:./lib/lib8tion/math8.h **** #ifndef __INC_LIB8TION_MATH_H
   2:./lib/lib8tion/math8.h **** #define __INC_LIB8TION_MATH_H
   3:./lib/lib8tion/math8.h **** 
   4:./lib/lib8tion/math8.h **** #include "scale8.h"
   5:./lib/lib8tion/math8.h **** 
   6:./lib/lib8tion/math8.h **** ///@ingroup lib8tion
   7:./lib/lib8tion/math8.h **** 
   8:./lib/lib8tion/math8.h **** ///@defgroup Math Basic math operations
   9:./lib/lib8tion/math8.h **** /// Fast, efficient 8-bit math functions specifically
  10:./lib/lib8tion/math8.h **** /// designed for high-performance LED programming.
  11:./lib/lib8tion/math8.h **** ///
  12:./lib/lib8tion/math8.h **** /// Because of the AVR(Arduino) and ARM assembly language
  13:./lib/lib8tion/math8.h **** /// implementations provided, using these functions often
  14:./lib/lib8tion/math8.h **** /// results in smaller and faster code than the equivalent
  15:./lib/lib8tion/math8.h **** /// program using plain "C" arithmetic and logic.
  16:./lib/lib8tion/math8.h **** ///@{
  17:./lib/lib8tion/math8.h **** 
  18:./lib/lib8tion/math8.h **** 
  19:./lib/lib8tion/math8.h **** /// add one byte to another, saturating at 0xFF
  20:./lib/lib8tion/math8.h **** /// @param i - first byte to add
  21:./lib/lib8tion/math8.h **** /// @param j - second byte to add
  22:./lib/lib8tion/math8.h **** /// @returns the sum of i & j, capped at 0xFF
  23:./lib/lib8tion/math8.h **** LIB8STATIC_ALWAYS_INLINE uint8_t qadd8( uint8_t i, uint8_t j)
 1847               		.loc 2 23 34 view .LVU434
 1848               	.LBB67:
  24:./lib/lib8tion/math8.h **** {
  25:./lib/lib8tion/math8.h **** #if QADD8_C == 1
  26:./lib/lib8tion/math8.h ****     uint16_t t = i + j;
  27:./lib/lib8tion/math8.h ****     if (t > 255) t = 255;
  28:./lib/lib8tion/math8.h ****     return t;
  29:./lib/lib8tion/math8.h **** #elif QADD8_AVRASM == 1
  30:./lib/lib8tion/math8.h ****     asm volatile(
 1849               		.loc 2 30 5 view .LVU435
 1850               	.LBE67:
 1851               	.LBE66:
 419:quantum/rgblight.c ****     rgblight_sethsv_eeprom_helper(rgblight_config.hue, sat, rgblight_config.val, write_to_eeprom);
 1852               		.loc 1 419 19 is_stmt 0 view .LVU436
 1853 0000 E0E0      		ldi r30,lo8(rgblight_config)
 1854 0002 F0E0      		ldi r31,hi8(rgblight_config)
 1855               	.LBB69:
 1856               	.LBB68:
 1857               		.loc 2 30 5 view .LVU437
 1858 0004 6281      		ldd r22,Z+2
 1859 0006 28E0      		ldi r18,lo8(8)
 1860               	/* #APP */
 1861               	 ;  30 "./lib/lib8tion/math8.h" 1
 1862 0008 620F      		add r22, r18    
 1863 000a 00F4      		brcc L_1447     
 1864 000c 6FEF      		ldi r22, 0xFF  
 1865               		L_1447: 
 1866               	 ;  0 "" 2
 1867               	.LVL116:
  31:./lib/lib8tion/math8.h ****          /* First, add j to i, conditioning the C flag */
  32:./lib/lib8tion/math8.h ****          "add %0, %1    \n\t"
  33:./lib/lib8tion/math8.h **** 
  34:./lib/lib8tion/math8.h ****          /* Now test the C flag.
  35:./lib/lib8tion/math8.h ****            If C is clear, we branch around a load of 0xFF into i.
  36:./lib/lib8tion/math8.h ****            If C is set, we go ahead and load 0xFF into i.
  37:./lib/lib8tion/math8.h ****          */
  38:./lib/lib8tion/math8.h ****          "brcc L_%=     \n\t"
  39:./lib/lib8tion/math8.h ****          "ldi %0, 0xFF  \n\t"
  40:./lib/lib8tion/math8.h ****          "L_%=: "
  41:./lib/lib8tion/math8.h ****          : "+a" (i)
  42:./lib/lib8tion/math8.h ****          : "a"  (j) );
  43:./lib/lib8tion/math8.h ****     return i;
 1868               		.loc 2 43 5 is_stmt 1 view .LVU438
 1869               		.loc 2 43 5 is_stmt 0 view .LVU439
 1870               	/* #NOAPP */
 1871               	.LBE68:
 1872               	.LBE69:
 420:quantum/rgblight.c **** }
 1873               		.loc 1 420 5 is_stmt 1 view .LVU440
 1874 000e 282F      		mov r18,r24
 1875 0010 4381      		ldd r20,Z+3
 1876 0012 8181      		ldd r24,Z+1
 1877               	.LVL117:
 420:quantum/rgblight.c **** }
 1878               		.loc 1 420 5 is_stmt 0 view .LVU441
 1879 0014 0C94 0000 		jmp rgblight_sethsv_eeprom_helper
 1880               	.LVL118:
 420:quantum/rgblight.c **** }
 1881               		.loc 1 420 5 view .LVU442
 1882               		.cfi_endproc
 1883               	.LFE125:
 1885               		.section	.text.rgblight_increase_sat_noeeprom,"ax",@progbits
 1886               	.global	rgblight_increase_sat_noeeprom
 1888               	rgblight_increase_sat_noeeprom:
 1889               	.LFB126:
 422:quantum/rgblight.c **** void rgblight_increase_sat(void) { rgblight_increase_sat_helper(true); }
 1890               		.loc 1 422 43 is_stmt 1 view -0
 1891               		.cfi_startproc
 1892               	/* prologue: function */
 1893               	/* frame size = 0 */
 1894               	/* stack size = 0 */
 1895               	.L__stack_usage = 0
 422:quantum/rgblight.c **** void rgblight_increase_sat(void) { rgblight_increase_sat_helper(true); }
 1896               		.loc 1 422 45 view .LVU444
 1897 0000 80E0      		ldi r24,0
 1898 0002 0C94 0000 		jmp rgblight_increase_sat_helper
 1899               	.LVL119:
 1900               		.cfi_endproc
 1901               	.LFE126:
 1903               		.section	.text.rgblight_increase_sat,"ax",@progbits
 1904               	.global	rgblight_increase_sat
 1906               	rgblight_increase_sat:
 1907               	.LFB127:
 423:quantum/rgblight.c **** void rgblight_decrease_sat_helper(bool write_to_eeprom) {
 1908               		.loc 1 423 34 view -0
 1909               		.cfi_startproc
 1910               	/* prologue: function */
 1911               	/* frame size = 0 */
 1912               	/* stack size = 0 */
 1913               	.L__stack_usage = 0
 423:quantum/rgblight.c **** void rgblight_decrease_sat_helper(bool write_to_eeprom) {
 1914               		.loc 1 423 36 view .LVU446
 1915 0000 81E0      		ldi r24,lo8(1)
 1916 0002 0C94 0000 		jmp rgblight_increase_sat_helper
 1917               	.LVL120:
 1918               		.cfi_endproc
 1919               	.LFE127:
 1921               		.section	.text.rgblight_decrease_sat_helper,"ax",@progbits
 1922               	.global	rgblight_decrease_sat_helper
 1924               	rgblight_decrease_sat_helper:
 1925               	.LVL121:
 1926               	.LFB128:
 424:quantum/rgblight.c ****     uint8_t sat = qsub8(rgblight_config.sat, RGBLIGHT_SAT_STEP);
 1927               		.loc 1 424 57 view -0
 1928               		.cfi_startproc
 1929               	/* prologue: function */
 1930               	/* frame size = 0 */
 1931               	/* stack size = 0 */
 1932               	.L__stack_usage = 0
 425:quantum/rgblight.c ****     rgblight_sethsv_eeprom_helper(rgblight_config.hue, sat, rgblight_config.val, write_to_eeprom);
 1933               		.loc 1 425 5 view .LVU448
 1934               	.LBB70:
 1935               	.LBI70:
  44:./lib/lib8tion/math8.h **** #elif QADD8_ARM_DSP_ASM == 1
  45:./lib/lib8tion/math8.h ****     asm volatile( "uqadd8 %0, %0, %1" : "+r" (i) : "r" (j));
  46:./lib/lib8tion/math8.h ****     return i;
  47:./lib/lib8tion/math8.h **** #else
  48:./lib/lib8tion/math8.h **** #error "No implementation for qadd8 available."
  49:./lib/lib8tion/math8.h **** #endif
  50:./lib/lib8tion/math8.h **** }
  51:./lib/lib8tion/math8.h **** 
  52:./lib/lib8tion/math8.h **** /// Add one byte to another, saturating at 0x7F
  53:./lib/lib8tion/math8.h **** /// @param i - first byte to add
  54:./lib/lib8tion/math8.h **** /// @param j - second byte to add
  55:./lib/lib8tion/math8.h **** /// @returns the sum of i & j, capped at 0xFF
  56:./lib/lib8tion/math8.h **** LIB8STATIC_ALWAYS_INLINE int8_t qadd7( int8_t i, int8_t j)
  57:./lib/lib8tion/math8.h **** {
  58:./lib/lib8tion/math8.h **** #if QADD7_C == 1
  59:./lib/lib8tion/math8.h ****     int16_t t = i + j;
  60:./lib/lib8tion/math8.h ****     if (t > 127) t = 127;
  61:./lib/lib8tion/math8.h ****     return t;
  62:./lib/lib8tion/math8.h **** #elif QADD7_AVRASM == 1
  63:./lib/lib8tion/math8.h ****     asm volatile(
  64:./lib/lib8tion/math8.h ****          /* First, add j to i, conditioning the V flag */
  65:./lib/lib8tion/math8.h ****          "add %0, %1    \n\t"
  66:./lib/lib8tion/math8.h **** 
  67:./lib/lib8tion/math8.h ****          /* Now test the V flag.
  68:./lib/lib8tion/math8.h ****           If V is clear, we branch around a load of 0x7F into i.
  69:./lib/lib8tion/math8.h ****           If V is set, we go ahead and load 0x7F into i.
  70:./lib/lib8tion/math8.h ****           */
  71:./lib/lib8tion/math8.h ****          "brvc L_%=     \n\t"
  72:./lib/lib8tion/math8.h ****          "ldi %0, 0x7F  \n\t"
  73:./lib/lib8tion/math8.h ****          "L_%=: "
  74:./lib/lib8tion/math8.h ****          : "+a" (i)
  75:./lib/lib8tion/math8.h ****          : "a"  (j) );
  76:./lib/lib8tion/math8.h **** 
  77:./lib/lib8tion/math8.h ****     return i;
  78:./lib/lib8tion/math8.h **** #elif QADD7_ARM_DSP_ASM == 1
  79:./lib/lib8tion/math8.h ****     asm volatile( "qadd8 %0, %0, %1" : "+r" (i) : "r" (j));
  80:./lib/lib8tion/math8.h ****     return i;
  81:./lib/lib8tion/math8.h **** #else
  82:./lib/lib8tion/math8.h **** #error "No implementation for qadd7 available."
  83:./lib/lib8tion/math8.h **** #endif
  84:./lib/lib8tion/math8.h **** }
  85:./lib/lib8tion/math8.h **** 
  86:./lib/lib8tion/math8.h **** /// subtract one byte from another, saturating at 0x00
  87:./lib/lib8tion/math8.h **** /// @returns i - j with a floor of 0
  88:./lib/lib8tion/math8.h **** LIB8STATIC_ALWAYS_INLINE uint8_t qsub8( uint8_t i, uint8_t j)
 1936               		.loc 2 88 34 view .LVU449
 1937               	.LBB71:
  89:./lib/lib8tion/math8.h **** {
  90:./lib/lib8tion/math8.h **** #if QSUB8_C == 1
  91:./lib/lib8tion/math8.h ****     int16_t t = i - j;
  92:./lib/lib8tion/math8.h ****     if (t < 0) t = 0;
  93:./lib/lib8tion/math8.h ****     return t;
  94:./lib/lib8tion/math8.h **** #elif QSUB8_AVRASM == 1
  95:./lib/lib8tion/math8.h **** 
  96:./lib/lib8tion/math8.h ****     asm volatile(
 1938               		.loc 2 96 5 view .LVU450
 1939               	.LBE71:
 1940               	.LBE70:
 425:quantum/rgblight.c ****     rgblight_sethsv_eeprom_helper(rgblight_config.hue, sat, rgblight_config.val, write_to_eeprom);
 1941               		.loc 1 425 19 is_stmt 0 view .LVU451
 1942 0000 E0E0      		ldi r30,lo8(rgblight_config)
 1943 0002 F0E0      		ldi r31,hi8(rgblight_config)
 1944               	.LBB73:
 1945               	.LBB72:
 1946               		.loc 2 96 5 view .LVU452
 1947 0004 6281      		ldd r22,Z+2
 1948 0006 28E0      		ldi r18,lo8(8)
 1949               	/* #APP */
 1950               	 ;  96 "./lib/lib8tion/math8.h" 1
 1951 0008 621B      		sub r22, r18    
 1952 000a 00F4      		brcc L_1503     
 1953 000c 60E0      		ldi r22, 0x00  
 1954               		L_1503: 
 1955               	 ;  0 "" 2
 1956               	.LVL122:
  97:./lib/lib8tion/math8.h ****          /* First, subtract j from i, conditioning the C flag */
  98:./lib/lib8tion/math8.h ****          "sub %0, %1    \n\t"
  99:./lib/lib8tion/math8.h **** 
 100:./lib/lib8tion/math8.h ****          /* Now test the C flag.
 101:./lib/lib8tion/math8.h ****           If C is clear, we branch around a load of 0x00 into i.
 102:./lib/lib8tion/math8.h ****           If C is set, we go ahead and load 0x00 into i.
 103:./lib/lib8tion/math8.h ****           */
 104:./lib/lib8tion/math8.h ****          "brcc L_%=     \n\t"
 105:./lib/lib8tion/math8.h ****          "ldi %0, 0x00  \n\t"
 106:./lib/lib8tion/math8.h ****          "L_%=: "
 107:./lib/lib8tion/math8.h ****          : "+a" (i)
 108:./lib/lib8tion/math8.h ****          : "a"  (j) );
 109:./lib/lib8tion/math8.h **** 
 110:./lib/lib8tion/math8.h ****     return i;
 1957               		.loc 2 110 5 is_stmt 1 view .LVU453
 1958               		.loc 2 110 5 is_stmt 0 view .LVU454
 1959               	/* #NOAPP */
 1960               	.LBE72:
 1961               	.LBE73:
 426:quantum/rgblight.c **** }
 1962               		.loc 1 426 5 is_stmt 1 view .LVU455
 1963 000e 282F      		mov r18,r24
 1964 0010 4381      		ldd r20,Z+3
 1965 0012 8181      		ldd r24,Z+1
 1966               	.LVL123:
 426:quantum/rgblight.c **** }
 1967               		.loc 1 426 5 is_stmt 0 view .LVU456
 1968 0014 0C94 0000 		jmp rgblight_sethsv_eeprom_helper
 1969               	.LVL124:
 426:quantum/rgblight.c **** }
 1970               		.loc 1 426 5 view .LVU457
 1971               		.cfi_endproc
 1972               	.LFE128:
 1974               		.section	.text.rgblight_decrease_sat_noeeprom,"ax",@progbits
 1975               	.global	rgblight_decrease_sat_noeeprom
 1977               	rgblight_decrease_sat_noeeprom:
 1978               	.LFB129:
 428:quantum/rgblight.c **** void rgblight_decrease_sat(void) { rgblight_decrease_sat_helper(true); }
 1979               		.loc 1 428 43 is_stmt 1 view -0
 1980               		.cfi_startproc
 1981               	/* prologue: function */
 1982               	/* frame size = 0 */
 1983               	/* stack size = 0 */
 1984               	.L__stack_usage = 0
 428:quantum/rgblight.c **** void rgblight_decrease_sat(void) { rgblight_decrease_sat_helper(true); }
 1985               		.loc 1 428 45 view .LVU459
 1986 0000 80E0      		ldi r24,0
 1987 0002 0C94 0000 		jmp rgblight_decrease_sat_helper
 1988               	.LVL125:
 1989               		.cfi_endproc
 1990               	.LFE129:
 1992               		.section	.text.rgblight_decrease_sat,"ax",@progbits
 1993               	.global	rgblight_decrease_sat
 1995               	rgblight_decrease_sat:
 1996               	.LFB130:
 429:quantum/rgblight.c **** void rgblight_increase_val_helper(bool write_to_eeprom) {
 1997               		.loc 1 429 34 view -0
 1998               		.cfi_startproc
 1999               	/* prologue: function */
 2000               	/* frame size = 0 */
 2001               	/* stack size = 0 */
 2002               	.L__stack_usage = 0
 429:quantum/rgblight.c **** void rgblight_increase_val_helper(bool write_to_eeprom) {
 2003               		.loc 1 429 36 view .LVU461
 2004 0000 81E0      		ldi r24,lo8(1)
 2005 0002 0C94 0000 		jmp rgblight_decrease_sat_helper
 2006               	.LVL126:
 2007               		.cfi_endproc
 2008               	.LFE130:
 2010               		.section	.text.rgblight_increase_val_helper,"ax",@progbits
 2011               	.global	rgblight_increase_val_helper
 2013               	rgblight_increase_val_helper:
 2014               	.LVL127:
 2015               	.LFB131:
 430:quantum/rgblight.c ****     uint8_t val = qadd8(rgblight_config.val, RGBLIGHT_VAL_STEP);
 2016               		.loc 1 430 57 view -0
 2017               		.cfi_startproc
 2018               	/* prologue: function */
 2019               	/* frame size = 0 */
 2020               	/* stack size = 0 */
 2021               	.L__stack_usage = 0
 431:quantum/rgblight.c ****     rgblight_sethsv_eeprom_helper(rgblight_config.hue, rgblight_config.sat, val, write_to_eeprom);
 2022               		.loc 1 431 5 view .LVU463
 2023               	.LBB74:
 2024               	.LBI74:
  23:./lib/lib8tion/math8.h **** {
 2025               		.loc 2 23 34 view .LVU464
 2026               	.LBB75:
  30:./lib/lib8tion/math8.h ****          /* First, add j to i, conditioning the C flag */
 2027               		.loc 2 30 5 view .LVU465
 2028               	.LBE75:
 2029               	.LBE74:
 431:quantum/rgblight.c ****     rgblight_sethsv_eeprom_helper(rgblight_config.hue, rgblight_config.sat, val, write_to_eeprom);
 2030               		.loc 1 431 19 is_stmt 0 view .LVU466
 2031 0000 E0E0      		ldi r30,lo8(rgblight_config)
 2032 0002 F0E0      		ldi r31,hi8(rgblight_config)
 2033               	.LBB77:
 2034               	.LBB76:
  30:./lib/lib8tion/math8.h ****          /* First, add j to i, conditioning the C flag */
 2035               		.loc 2 30 5 view .LVU467
 2036 0004 4381      		ldd r20,Z+3
 2037 0006 28E0      		ldi r18,lo8(8)
 2038               	/* #APP */
 2039               	 ;  30 "./lib/lib8tion/math8.h" 1
 2040 0008 420F      		add r20, r18    
 2041 000a 00F4      		brcc L_1559     
 2042 000c 4FEF      		ldi r20, 0xFF  
 2043               		L_1559: 
 2044               	 ;  0 "" 2
 2045               	.LVL128:
  43:./lib/lib8tion/math8.h **** #elif QADD8_ARM_DSP_ASM == 1
 2046               		.loc 2 43 5 is_stmt 1 view .LVU468
  43:./lib/lib8tion/math8.h **** #elif QADD8_ARM_DSP_ASM == 1
 2047               		.loc 2 43 5 is_stmt 0 view .LVU469
 2048               	/* #NOAPP */
 2049               	.LBE76:
 2050               	.LBE77:
 432:quantum/rgblight.c **** }
 2051               		.loc 1 432 5 is_stmt 1 view .LVU470
 2052 000e 282F      		mov r18,r24
 2053 0010 6281      		ldd r22,Z+2
 2054 0012 8181      		ldd r24,Z+1
 2055               	.LVL129:
 432:quantum/rgblight.c **** }
 2056               		.loc 1 432 5 is_stmt 0 view .LVU471
 2057 0014 0C94 0000 		jmp rgblight_sethsv_eeprom_helper
 2058               	.LVL130:
 432:quantum/rgblight.c **** }
 2059               		.loc 1 432 5 view .LVU472
 2060               		.cfi_endproc
 2061               	.LFE131:
 2063               		.section	.text.rgblight_increase_val_noeeprom,"ax",@progbits
 2064               	.global	rgblight_increase_val_noeeprom
 2066               	rgblight_increase_val_noeeprom:
 2067               	.LFB132:
 434:quantum/rgblight.c **** void rgblight_increase_val(void) { rgblight_increase_val_helper(true); }
 2068               		.loc 1 434 43 is_stmt 1 view -0
 2069               		.cfi_startproc
 2070               	/* prologue: function */
 2071               	/* frame size = 0 */
 2072               	/* stack size = 0 */
 2073               	.L__stack_usage = 0
 434:quantum/rgblight.c **** void rgblight_increase_val(void) { rgblight_increase_val_helper(true); }
 2074               		.loc 1 434 45 view .LVU474
 2075 0000 80E0      		ldi r24,0
 2076 0002 0C94 0000 		jmp rgblight_increase_val_helper
 2077               	.LVL131:
 2078               		.cfi_endproc
 2079               	.LFE132:
 2081               		.section	.text.rgblight_increase_val,"ax",@progbits
 2082               	.global	rgblight_increase_val
 2084               	rgblight_increase_val:
 2085               	.LFB133:
 435:quantum/rgblight.c **** void rgblight_decrease_val_helper(bool write_to_eeprom) {
 2086               		.loc 1 435 34 view -0
 2087               		.cfi_startproc
 2088               	/* prologue: function */
 2089               	/* frame size = 0 */
 2090               	/* stack size = 0 */
 2091               	.L__stack_usage = 0
 435:quantum/rgblight.c **** void rgblight_decrease_val_helper(bool write_to_eeprom) {
 2092               		.loc 1 435 36 view .LVU476
 2093 0000 81E0      		ldi r24,lo8(1)
 2094 0002 0C94 0000 		jmp rgblight_increase_val_helper
 2095               	.LVL132:
 2096               		.cfi_endproc
 2097               	.LFE133:
 2099               		.section	.text.rgblight_decrease_val_helper,"ax",@progbits
 2100               	.global	rgblight_decrease_val_helper
 2102               	rgblight_decrease_val_helper:
 2103               	.LVL133:
 2104               	.LFB134:
 436:quantum/rgblight.c ****     uint8_t val = qsub8(rgblight_config.val, RGBLIGHT_VAL_STEP);
 2105               		.loc 1 436 57 view -0
 2106               		.cfi_startproc
 2107               	/* prologue: function */
 2108               	/* frame size = 0 */
 2109               	/* stack size = 0 */
 2110               	.L__stack_usage = 0
 437:quantum/rgblight.c ****     rgblight_sethsv_eeprom_helper(rgblight_config.hue, rgblight_config.sat, val, write_to_eeprom);
 2111               		.loc 1 437 5 view .LVU478
 2112               	.LBB78:
 2113               	.LBI78:
  88:./lib/lib8tion/math8.h **** {
 2114               		.loc 2 88 34 view .LVU479
 2115               	.LBB79:
  96:./lib/lib8tion/math8.h ****          /* First, subtract j from i, conditioning the C flag */
 2116               		.loc 2 96 5 view .LVU480
 2117               	.LBE79:
 2118               	.LBE78:
 437:quantum/rgblight.c ****     rgblight_sethsv_eeprom_helper(rgblight_config.hue, rgblight_config.sat, val, write_to_eeprom);
 2119               		.loc 1 437 19 is_stmt 0 view .LVU481
 2120 0000 E0E0      		ldi r30,lo8(rgblight_config)
 2121 0002 F0E0      		ldi r31,hi8(rgblight_config)
 2122               	.LBB81:
 2123               	.LBB80:
  96:./lib/lib8tion/math8.h ****          /* First, subtract j from i, conditioning the C flag */
 2124               		.loc 2 96 5 view .LVU482
 2125 0004 4381      		ldd r20,Z+3
 2126 0006 28E0      		ldi r18,lo8(8)
 2127               	/* #APP */
 2128               	 ;  96 "./lib/lib8tion/math8.h" 1
 2129 0008 421B      		sub r20, r18    
 2130 000a 00F4      		brcc L_1615     
 2131 000c 40E0      		ldi r20, 0x00  
 2132               		L_1615: 
 2133               	 ;  0 "" 2
 2134               	.LVL134:
 2135               		.loc 2 110 5 is_stmt 1 view .LVU483
 2136               		.loc 2 110 5 is_stmt 0 view .LVU484
 2137               	/* #NOAPP */
 2138               	.LBE80:
 2139               	.LBE81:
 438:quantum/rgblight.c **** }
 2140               		.loc 1 438 5 is_stmt 1 view .LVU485
 2141 000e 282F      		mov r18,r24
 2142 0010 6281      		ldd r22,Z+2
 2143 0012 8181      		ldd r24,Z+1
 2144               	.LVL135:
 438:quantum/rgblight.c **** }
 2145               		.loc 1 438 5 is_stmt 0 view .LVU486
 2146 0014 0C94 0000 		jmp rgblight_sethsv_eeprom_helper
 2147               	.LVL136:
 438:quantum/rgblight.c **** }
 2148               		.loc 1 438 5 view .LVU487
 2149               		.cfi_endproc
 2150               	.LFE134:
 2152               		.section	.text.rgblight_decrease_val_noeeprom,"ax",@progbits
 2153               	.global	rgblight_decrease_val_noeeprom
 2155               	rgblight_decrease_val_noeeprom:
 2156               	.LFB135:
 440:quantum/rgblight.c **** void rgblight_decrease_val(void) { rgblight_decrease_val_helper(true); }
 2157               		.loc 1 440 43 is_stmt 1 view -0
 2158               		.cfi_startproc
 2159               	/* prologue: function */
 2160               	/* frame size = 0 */
 2161               	/* stack size = 0 */
 2162               	.L__stack_usage = 0
 440:quantum/rgblight.c **** void rgblight_decrease_val(void) { rgblight_decrease_val_helper(true); }
 2163               		.loc 1 440 45 view .LVU489
 2164 0000 80E0      		ldi r24,0
 2165 0002 0C94 0000 		jmp rgblight_decrease_val_helper
 2166               	.LVL137:
 2167               		.cfi_endproc
 2168               	.LFE135:
 2170               		.section	.text.rgblight_decrease_val,"ax",@progbits
 2171               	.global	rgblight_decrease_val
 2173               	rgblight_decrease_val:
 2174               	.LFB136:
 441:quantum/rgblight.c **** 
 2175               		.loc 1 441 34 view -0
 2176               		.cfi_startproc
 2177               	/* prologue: function */
 2178               	/* frame size = 0 */
 2179               	/* stack size = 0 */
 2180               	.L__stack_usage = 0
 441:quantum/rgblight.c **** 
 2181               		.loc 1 441 36 view .LVU491
 2182 0000 81E0      		ldi r24,lo8(1)
 2183 0002 0C94 0000 		jmp rgblight_decrease_val_helper
 2184               	.LVL138:
 2185               		.cfi_endproc
 2186               	.LFE136:
 2188               		.section	.text.rgblight_sethsv,"ax",@progbits
 2189               	.global	rgblight_sethsv
 2191               	rgblight_sethsv:
 2192               	.LVL139:
 2193               	.LFB145:
 543:quantum/rgblight.c **** 
 2194               		.loc 1 543 61 view -0
 2195               		.cfi_startproc
 2196               	/* prologue: function */
 2197               	/* frame size = 0 */
 2198               	/* stack size = 0 */
 2199               	.L__stack_usage = 0
 543:quantum/rgblight.c **** 
 2200               		.loc 1 543 63 view .LVU493
 2201 0000 21E0      		ldi r18,lo8(1)
 2202 0002 0C94 0000 		jmp rgblight_sethsv_eeprom_helper
 2203               	.LVL140:
 543:quantum/rgblight.c **** 
 2204               		.loc 1 543 63 is_stmt 0 view .LVU494
 2205               		.cfi_endproc
 2206               	.LFE145:
 2208               		.section	.text.rgblight_sethsv_noeeprom,"ax",@progbits
 2209               	.global	rgblight_sethsv_noeeprom
 2211               	rgblight_sethsv_noeeprom:
 2212               	.LVL141:
 2213               	.LFB146:
 545:quantum/rgblight.c **** 
 2214               		.loc 1 545 70 is_stmt 1 view -0
 2215               		.cfi_startproc
 2216               	/* prologue: function */
 2217               	/* frame size = 0 */
 2218               	/* stack size = 0 */
 2219               	.L__stack_usage = 0
 545:quantum/rgblight.c **** 
 2220               		.loc 1 545 72 view .LVU496
 2221 0000 20E0      		ldi r18,0
 2222 0002 0C94 0000 		jmp rgblight_sethsv_eeprom_helper
 2223               	.LVL142:
 545:quantum/rgblight.c **** 
 2224               		.loc 1 545 72 is_stmt 0 view .LVU497
 2225               		.cfi_endproc
 2226               	.LFE146:
 2228               		.section	.text.rgblight_setrgb_at,"ax",@progbits
 2229               	.global	rgblight_setrgb_at
 2231               	rgblight_setrgb_at:
 2232               	.LVL143:
 2233               	.LFB156:
 587:quantum/rgblight.c ****     if (!rgblight_config.enable || index >= RGBLED_NUM) {
 2234               		.loc 1 587 73 is_stmt 1 view -0
 2235               		.cfi_startproc
 2236               	/* prologue: function */
 2237               	/* frame size = 0 */
 2238               	/* stack size = 0 */
 2239               	.L__stack_usage = 0
 588:quantum/rgblight.c ****         return;
 2240               		.loc 1 588 5 view .LVU499
 588:quantum/rgblight.c ****         return;
 2241               		.loc 1 588 25 is_stmt 0 view .LVU500
 2242 0000 9091 0000 		lds r25,rgblight_config
 588:quantum/rgblight.c ****         return;
 2243               		.loc 1 588 8 view .LVU501
 2244 0004 90FF      		sbrs r25,0
 2245 0006 00C0      		rjmp .L108
 588:quantum/rgblight.c ****         return;
 2246               		.loc 1 588 33 discriminator 1 view .LVU502
 2247 0008 2830      		cpi r18,lo8(8)
 2248 000a 00F4      		brsh .L108
 592:quantum/rgblight.c ****     led[index].g = g;
 2249               		.loc 1 592 5 is_stmt 1 view .LVU503
 592:quantum/rgblight.c ****     led[index].g = g;
 2250               		.loc 1 592 15 is_stmt 0 view .LVU504
 2251 000c 30E0      		ldi r19,0
 592:quantum/rgblight.c ****     led[index].g = g;
 2252               		.loc 1 592 18 view .LVU505
 2253 000e F901      		movw r30,r18
 2254 0010 EE0F      		lsl r30
 2255 0012 FF1F      		rol r31
 2256 0014 E20F      		add r30,r18
 2257 0016 F31F      		adc r31,r19
 2258 0018 E050      		subi r30,lo8(-(led))
 2259 001a F040      		sbci r31,hi8(-(led))
 2260 001c 8183      		std Z+1,r24
 593:quantum/rgblight.c ****     led[index].b = b;
 2261               		.loc 1 593 5 is_stmt 1 view .LVU506
 593:quantum/rgblight.c ****     led[index].b = b;
 2262               		.loc 1 593 18 is_stmt 0 view .LVU507
 2263 001e 6083      		st Z,r22
 594:quantum/rgblight.c **** #ifdef RGBW
 2264               		.loc 1 594 5 is_stmt 1 view .LVU508
 594:quantum/rgblight.c **** #ifdef RGBW
 2265               		.loc 1 594 18 is_stmt 0 view .LVU509
 2266 0020 4283      		std Z+2,r20
 598:quantum/rgblight.c **** }
 2267               		.loc 1 598 5 is_stmt 1 view .LVU510
 2268 0022 0C94 0000 		jmp rgblight_set
 2269               	.LVL144:
 2270               	.L108:
 2271               	/* epilogue start */
 599:quantum/rgblight.c **** 
 2272               		.loc 1 599 1 is_stmt 0 view .LVU511
 2273 0026 0895      		ret
 2274               		.cfi_endproc
 2275               	.LFE156:
 2277               		.section	.text.rgblight_sethsv_at,"ax",@progbits
 2278               	.global	rgblight_sethsv_at
 2280               	rgblight_sethsv_at:
 2281               	.LVL145:
 2282               	.LFB157:
 601:quantum/rgblight.c ****     if (!rgblight_config.enable) {
 2283               		.loc 1 601 79 is_stmt 1 view -0
 2284               		.cfi_startproc
 601:quantum/rgblight.c ****     if (!rgblight_config.enable) {
 2285               		.loc 1 601 79 is_stmt 0 view .LVU513
 2286 0000 1F93      		push r17
 2287               	.LCFI32:
 2288               		.cfi_def_cfa_offset 3
 2289               		.cfi_offset 17, -2
 2290 0002 CF93      		push r28
 2291               	.LCFI33:
 2292               		.cfi_def_cfa_offset 4
 2293               		.cfi_offset 28, -3
 2294 0004 DF93      		push r29
 2295               	.LCFI34:
 2296               		.cfi_def_cfa_offset 5
 2297               		.cfi_offset 29, -4
 2298 0006 00D0      		rcall .
 2299 0008 0F92      		push __tmp_reg__
 2300               	.LCFI35:
 2301               		.cfi_def_cfa_offset 8
 2302 000a CDB7      		in r28,__SP_L__
 2303 000c DEB7      		in r29,__SP_H__
 2304               	.LCFI36:
 2305               		.cfi_def_cfa_register 28
 2306               	/* prologue: function */
 2307               	/* frame size = 3 */
 2308               	/* stack size = 6 */
 2309               	.L__stack_usage = 6
 2310 000e 122F      		mov r17,r18
 602:quantum/rgblight.c ****         return;
 2311               		.loc 1 602 5 is_stmt 1 view .LVU514
 602:quantum/rgblight.c ****         return;
 2312               		.loc 1 602 25 is_stmt 0 view .LVU515
 2313 0010 9091 0000 		lds r25,rgblight_config
 602:quantum/rgblight.c ****         return;
 2314               		.loc 1 602 8 view .LVU516
 2315 0014 90FF      		sbrs r25,0
 2316 0016 00C0      		rjmp .L113
 606:quantum/rgblight.c ****     sethsv(hue, sat, val, &tmp_led);
 2317               		.loc 1 606 5 is_stmt 1 view .LVU517
 607:quantum/rgblight.c ****     rgblight_setrgb_at(tmp_led.r, tmp_led.g, tmp_led.b, index);
 2318               		.loc 1 607 5 view .LVU518
 2319               	.LVL146:
 2320               	.LBB84:
 2321               	.LBI84:
 154:quantum/rgblight.c **** 
 2322               		.loc 1 154 6 view .LVU519
 2323               	.LBB85:
 154:quantum/rgblight.c **** 
 2324               		.loc 1 154 70 view .LVU520
 2325 0018 9E01      		movw r18,r28
 2326               	.LVL147:
 154:quantum/rgblight.c **** 
 2327               		.loc 1 154 70 is_stmt 0 view .LVU521
 2328 001a 2F5F      		subi r18,-1
 2329 001c 3F4F      		sbci r19,-1
 2330 001e 0E94 0000 		call sethsv_raw
 2331               	.LVL148:
 154:quantum/rgblight.c **** 
 2332               		.loc 1 154 70 view .LVU522
 2333               	.LBE85:
 2334               	.LBE84:
 608:quantum/rgblight.c **** }
 2335               		.loc 1 608 5 is_stmt 1 view .LVU523
 2336 0022 212F      		mov r18,r17
 2337 0024 4B81      		ldd r20,Y+3
 2338 0026 6981      		ldd r22,Y+1
 2339 0028 8A81      		ldd r24,Y+2
 2340 002a 0E94 0000 		call rgblight_setrgb_at
 2341               	.LVL149:
 2342               	.L113:
 2343               	/* epilogue start */
 609:quantum/rgblight.c **** 
 2344               		.loc 1 609 1 is_stmt 0 view .LVU524
 2345 002e 0F90      		pop __tmp_reg__
 2346 0030 0F90      		pop __tmp_reg__
 2347 0032 0F90      		pop __tmp_reg__
 2348 0034 DF91      		pop r29
 2349 0036 CF91      		pop r28
 2350 0038 1F91      		pop r17
 2351               	.LVL150:
 609:quantum/rgblight.c **** 
 2352               		.loc 1 609 1 view .LVU525
 2353 003a 0895      		ret
 2354               		.cfi_endproc
 2355               	.LFE157:
 2357               		.section	.text.rgblight_setrgb_range,"ax",@progbits
 2358               	.global	rgblight_setrgb_range
 2360               	rgblight_setrgb_range:
 2361               	.LVL151:
 2362               	.LFB159:
 623:quantum/rgblight.c ****     if (!rgblight_config.enable || start < 0 || start >= end || end > RGBLED_NUM) {
 2363               		.loc 1 623 89 is_stmt 1 view -0
 2364               		.cfi_startproc
 623:quantum/rgblight.c ****     if (!rgblight_config.enable || start < 0 || start >= end || end > RGBLED_NUM) {
 2365               		.loc 1 623 89 is_stmt 0 view .LVU527
 2366 0000 0F93      		push r16
 2367               	.LCFI37:
 2368               		.cfi_def_cfa_offset 3
 2369               		.cfi_offset 16, -2
 2370               	/* prologue: function */
 2371               	/* frame size = 0 */
 2372               	/* stack size = 1 */
 2373               	.L__stack_usage = 1
 624:quantum/rgblight.c ****         return;
 2374               		.loc 1 624 5 is_stmt 1 view .LVU528
 624:quantum/rgblight.c ****         return;
 2375               		.loc 1 624 25 is_stmt 0 view .LVU529
 2376 0002 9091 0000 		lds r25,rgblight_config
 624:quantum/rgblight.c ****         return;
 2377               		.loc 1 624 8 view .LVU530
 2378 0006 90FF      		sbrs r25,0
 2379 0008 00C0      		rjmp .L116
 624:quantum/rgblight.c ****         return;
 2380               		.loc 1 624 46 discriminator 1 view .LVU531
 2381 000a 2017      		cp r18,r16
 2382 000c 00F4      		brsh .L116
 624:quantum/rgblight.c ****         return;
 2383               		.loc 1 624 62 discriminator 2 view .LVU532
 2384 000e 0930      		cpi r16,lo8(9)
 2385 0010 00F4      		brsh .L116
 2386 0012 93E0      		ldi r25,lo8(3)
 2387 0014 299F      		mul r18,r25
 2388 0016 F001      		movw r30,r0
 2389 0018 1124      		clr __zero_reg__
 2390 001a E050      		subi r30,lo8(-(led))
 2391 001c F040      		sbci r31,hi8(-(led))
 2392               	.LVL152:
 2393               	.L118:
 2394               	.LBB86:
 629:quantum/rgblight.c ****         led[i].g = g;
 2395               		.loc 1 629 9 is_stmt 1 discriminator 3 view .LVU533
 629:quantum/rgblight.c ****         led[i].g = g;
 2396               		.loc 1 629 18 is_stmt 0 discriminator 3 view .LVU534
 2397 001e 8183      		std Z+1,r24
 630:quantum/rgblight.c ****         led[i].b = b;
 2398               		.loc 1 630 9 is_stmt 1 discriminator 3 view .LVU535
 630:quantum/rgblight.c ****         led[i].b = b;
 2399               		.loc 1 630 18 is_stmt 0 discriminator 3 view .LVU536
 2400 0020 6083      		st Z,r22
 631:quantum/rgblight.c **** #ifdef RGBW
 2401               		.loc 1 631 9 is_stmt 1 discriminator 3 view .LVU537
 631:quantum/rgblight.c **** #ifdef RGBW
 2402               		.loc 1 631 18 is_stmt 0 discriminator 3 view .LVU538
 2403 0022 4283      		std Z+2,r20
 628:quantum/rgblight.c ****         led[i].r = r;
 2404               		.loc 1 628 38 is_stmt 1 discriminator 3 view .LVU539
 628:quantum/rgblight.c ****         led[i].r = r;
 2405               		.loc 1 628 39 is_stmt 0 discriminator 3 view .LVU540
 2406 0024 2F5F      		subi r18,lo8(-(1))
 2407               	.LVL153:
 628:quantum/rgblight.c ****         led[i].r = r;
 2408               		.loc 1 628 29 is_stmt 1 discriminator 3 view .LVU541
 2409 0026 3396      		adiw r30,3
 628:quantum/rgblight.c ****         led[i].r = r;
 2410               		.loc 1 628 5 is_stmt 0 discriminator 3 view .LVU542
 2411 0028 0213      		cpse r16,r18
 2412 002a 00C0      		rjmp .L118
 628:quantum/rgblight.c ****         led[i].r = r;
 2413               		.loc 1 628 5 discriminator 3 view .LVU543
 2414               	.LBE86:
 636:quantum/rgblight.c ****     wait_ms(1);
 2415               		.loc 1 636 5 is_stmt 1 view .LVU544
 2416 002c 0E94 0000 		call rgblight_set
 2417               	.LVL154:
 637:quantum/rgblight.c **** }
 2418               		.loc 1 637 5 view .LVU545
 2419               	.LBB87:
 2420               	.LBI87:
 2421               		.file 3 "e:\\game\\msys2\\mingw64\\avr\\include\\util\\delay.h"
   1:e:\game\msys2\mingw64\avr\include\util\delay.h **** /* Copyright (c) 2002, Marek Michalkiewicz
   2:e:\game\msys2\mingw64\avr\include\util\delay.h ****    Copyright (c) 2004,2005,2007 Joerg Wunsch
   3:e:\game\msys2\mingw64\avr\include\util\delay.h ****    Copyright (c) 2007  Florin-Viorel Petrov
   4:e:\game\msys2\mingw64\avr\include\util\delay.h ****    All rights reserved.
   5:e:\game\msys2\mingw64\avr\include\util\delay.h **** 
   6:e:\game\msys2\mingw64\avr\include\util\delay.h ****    Redistribution and use in source and binary forms, with or without
   7:e:\game\msys2\mingw64\avr\include\util\delay.h ****    modification, are permitted provided that the following conditions are met:
   8:e:\game\msys2\mingw64\avr\include\util\delay.h **** 
   9:e:\game\msys2\mingw64\avr\include\util\delay.h ****    * Redistributions of source code must retain the above copyright
  10:e:\game\msys2\mingw64\avr\include\util\delay.h ****      notice, this list of conditions and the following disclaimer.
  11:e:\game\msys2\mingw64\avr\include\util\delay.h **** 
  12:e:\game\msys2\mingw64\avr\include\util\delay.h ****    * Redistributions in binary form must reproduce the above copyright
  13:e:\game\msys2\mingw64\avr\include\util\delay.h ****      notice, this list of conditions and the following disclaimer in
  14:e:\game\msys2\mingw64\avr\include\util\delay.h ****      the documentation and/or other materials provided with the
  15:e:\game\msys2\mingw64\avr\include\util\delay.h ****      distribution.
  16:e:\game\msys2\mingw64\avr\include\util\delay.h **** 
  17:e:\game\msys2\mingw64\avr\include\util\delay.h ****    * Neither the name of the copyright holders nor the names of
  18:e:\game\msys2\mingw64\avr\include\util\delay.h ****      contributors may be used to endorse or promote products derived
  19:e:\game\msys2\mingw64\avr\include\util\delay.h ****      from this software without specific prior written permission.
  20:e:\game\msys2\mingw64\avr\include\util\delay.h **** 
  21:e:\game\msys2\mingw64\avr\include\util\delay.h ****   THIS SOFTWARE IS PROVIDED BY THE COPYRIGHT HOLDERS AND CONTRIBUTORS "AS IS"
  22:e:\game\msys2\mingw64\avr\include\util\delay.h ****   AND ANY EXPRESS OR IMPLIED WARRANTIES, INCLUDING, BUT NOT LIMITED TO, THE
  23:e:\game\msys2\mingw64\avr\include\util\delay.h ****   IMPLIED WARRANTIES OF MERCHANTABILITY AND FITNESS FOR A PARTICULAR PURPOSE
  24:e:\game\msys2\mingw64\avr\include\util\delay.h ****   ARE DISCLAIMED. IN NO EVENT SHALL THE COPYRIGHT OWNER OR CONTRIBUTORS BE
  25:e:\game\msys2\mingw64\avr\include\util\delay.h ****   LIABLE FOR ANY DIRECT, INDIRECT, INCIDENTAL, SPECIAL, EXEMPLARY, OR
  26:e:\game\msys2\mingw64\avr\include\util\delay.h ****   CONSEQUENTIAL DAMAGES (INCLUDING, BUT NOT LIMITED TO, PROCUREMENT OF
  27:e:\game\msys2\mingw64\avr\include\util\delay.h ****   SUBSTITUTE GOODS OR SERVICES; LOSS OF USE, DATA, OR PROFITS; OR BUSINESS
  28:e:\game\msys2\mingw64\avr\include\util\delay.h ****   INTERRUPTION) HOWEVER CAUSED AND ON ANY THEORY OF LIABILITY, WHETHER IN
  29:e:\game\msys2\mingw64\avr\include\util\delay.h ****   CONTRACT, STRICT LIABILITY, OR TORT (INCLUDING NEGLIGENCE OR OTHERWISE)
  30:e:\game\msys2\mingw64\avr\include\util\delay.h ****   ARISING IN ANY WAY OUT OF THE USE OF THIS SOFTWARE, EVEN IF ADVISED OF THE
  31:e:\game\msys2\mingw64\avr\include\util\delay.h ****   POSSIBILITY OF SUCH DAMAGE. */
  32:e:\game\msys2\mingw64\avr\include\util\delay.h **** 
  33:e:\game\msys2\mingw64\avr\include\util\delay.h **** /* $Id: delay.h.in 2506 2016-02-08 10:05:45Z joerg_wunsch $ */
  34:e:\game\msys2\mingw64\avr\include\util\delay.h **** 
  35:e:\game\msys2\mingw64\avr\include\util\delay.h **** #ifndef _UTIL_DELAY_H_
  36:e:\game\msys2\mingw64\avr\include\util\delay.h **** #define _UTIL_DELAY_H_ 1
  37:e:\game\msys2\mingw64\avr\include\util\delay.h **** 
  38:e:\game\msys2\mingw64\avr\include\util\delay.h **** #ifndef __DOXYGEN__
  39:e:\game\msys2\mingw64\avr\include\util\delay.h **** #  ifndef __HAS_DELAY_CYCLES
  40:e:\game\msys2\mingw64\avr\include\util\delay.h **** #    define __HAS_DELAY_CYCLES 1
  41:e:\game\msys2\mingw64\avr\include\util\delay.h **** #  endif
  42:e:\game\msys2\mingw64\avr\include\util\delay.h **** #endif  /* __DOXYGEN__ */
  43:e:\game\msys2\mingw64\avr\include\util\delay.h **** 
  44:e:\game\msys2\mingw64\avr\include\util\delay.h **** #include <inttypes.h>
  45:e:\game\msys2\mingw64\avr\include\util\delay.h **** #include <util/delay_basic.h>
  46:e:\game\msys2\mingw64\avr\include\util\delay.h **** #include <math.h>
  47:e:\game\msys2\mingw64\avr\include\util\delay.h **** 
  48:e:\game\msys2\mingw64\avr\include\util\delay.h **** /** \file */
  49:e:\game\msys2\mingw64\avr\include\util\delay.h **** /** \defgroup util_delay <util/delay.h>: Convenience functions for busy-wait delay loops
  50:e:\game\msys2\mingw64\avr\include\util\delay.h ****     \code
  51:e:\game\msys2\mingw64\avr\include\util\delay.h ****     #define F_CPU 1000000UL  // 1 MHz
  52:e:\game\msys2\mingw64\avr\include\util\delay.h ****     //#define F_CPU 14.7456E6
  53:e:\game\msys2\mingw64\avr\include\util\delay.h ****     #include <util/delay.h>
  54:e:\game\msys2\mingw64\avr\include\util\delay.h ****     \endcode
  55:e:\game\msys2\mingw64\avr\include\util\delay.h **** 
  56:e:\game\msys2\mingw64\avr\include\util\delay.h ****     \note As an alternative method, it is possible to pass the
  57:e:\game\msys2\mingw64\avr\include\util\delay.h ****     F_CPU macro down to the compiler from the Makefile.
  58:e:\game\msys2\mingw64\avr\include\util\delay.h ****     Obviously, in that case, no \c \#define statement should be
  59:e:\game\msys2\mingw64\avr\include\util\delay.h ****     used.
  60:e:\game\msys2\mingw64\avr\include\util\delay.h **** 
  61:e:\game\msys2\mingw64\avr\include\util\delay.h ****     The functions in this header file are wrappers around the basic
  62:e:\game\msys2\mingw64\avr\include\util\delay.h ****     busy-wait functions from <util/delay_basic.h>.  They are meant as
  63:e:\game\msys2\mingw64\avr\include\util\delay.h ****     convenience functions where actual time values can be specified
  64:e:\game\msys2\mingw64\avr\include\util\delay.h ****     rather than a number of cycles to wait for.  The idea behind is
  65:e:\game\msys2\mingw64\avr\include\util\delay.h ****     that compile-time constant expressions will be eliminated by
  66:e:\game\msys2\mingw64\avr\include\util\delay.h ****     compiler optimization so floating-point expressions can be used
  67:e:\game\msys2\mingw64\avr\include\util\delay.h ****     to calculate the number of delay cycles needed based on the CPU
  68:e:\game\msys2\mingw64\avr\include\util\delay.h ****     frequency passed by the macro F_CPU.
  69:e:\game\msys2\mingw64\avr\include\util\delay.h **** 
  70:e:\game\msys2\mingw64\avr\include\util\delay.h ****     \note In order for these functions to work as intended, compiler
  71:e:\game\msys2\mingw64\avr\include\util\delay.h ****     optimizations <em>must</em> be enabled, and the delay time
  72:e:\game\msys2\mingw64\avr\include\util\delay.h ****     <em>must</em> be an expression that is a known constant at
  73:e:\game\msys2\mingw64\avr\include\util\delay.h ****     compile-time.  If these requirements are not met, the resulting
  74:e:\game\msys2\mingw64\avr\include\util\delay.h ****     delay will be much longer (and basically unpredictable), and
  75:e:\game\msys2\mingw64\avr\include\util\delay.h ****     applications that otherwise do not use floating-point calculations
  76:e:\game\msys2\mingw64\avr\include\util\delay.h ****     will experience severe code bloat by the floating-point library
  77:e:\game\msys2\mingw64\avr\include\util\delay.h ****     routines linked into the application.
  78:e:\game\msys2\mingw64\avr\include\util\delay.h **** 
  79:e:\game\msys2\mingw64\avr\include\util\delay.h ****     The functions available allow the specification of microsecond, and
  80:e:\game\msys2\mingw64\avr\include\util\delay.h ****     millisecond delays directly, using the application-supplied macro
  81:e:\game\msys2\mingw64\avr\include\util\delay.h ****     F_CPU as the CPU clock frequency (in Hertz).
  82:e:\game\msys2\mingw64\avr\include\util\delay.h **** 
  83:e:\game\msys2\mingw64\avr\include\util\delay.h **** */
  84:e:\game\msys2\mingw64\avr\include\util\delay.h **** 
  85:e:\game\msys2\mingw64\avr\include\util\delay.h **** #if !defined(__DOXYGEN__)
  86:e:\game\msys2\mingw64\avr\include\util\delay.h **** static __inline__ void _delay_us(double __us) __attribute__((__always_inline__));
  87:e:\game\msys2\mingw64\avr\include\util\delay.h **** static __inline__ void _delay_ms(double __ms) __attribute__((__always_inline__));
  88:e:\game\msys2\mingw64\avr\include\util\delay.h **** #endif
  89:e:\game\msys2\mingw64\avr\include\util\delay.h **** 
  90:e:\game\msys2\mingw64\avr\include\util\delay.h **** #ifndef F_CPU
  91:e:\game\msys2\mingw64\avr\include\util\delay.h **** /* prevent compiler error by supplying a default */
  92:e:\game\msys2\mingw64\avr\include\util\delay.h **** # warning "F_CPU not defined for <util/delay.h>"
  93:e:\game\msys2\mingw64\avr\include\util\delay.h **** /** \ingroup util_delay
  94:e:\game\msys2\mingw64\avr\include\util\delay.h ****     \def F_CPU
  95:e:\game\msys2\mingw64\avr\include\util\delay.h ****     \brief CPU frequency in Hz
  96:e:\game\msys2\mingw64\avr\include\util\delay.h **** 
  97:e:\game\msys2\mingw64\avr\include\util\delay.h ****     The macro F_CPU specifies the CPU frequency to be considered by
  98:e:\game\msys2\mingw64\avr\include\util\delay.h ****     the delay macros.  This macro is normally supplied by the
  99:e:\game\msys2\mingw64\avr\include\util\delay.h ****     environment (e.g. from within a project header, or the project's
 100:e:\game\msys2\mingw64\avr\include\util\delay.h ****     Makefile).  The value 1 MHz here is only provided as a "vanilla"
 101:e:\game\msys2\mingw64\avr\include\util\delay.h ****     fallback if no such user-provided definition could be found.
 102:e:\game\msys2\mingw64\avr\include\util\delay.h **** 
 103:e:\game\msys2\mingw64\avr\include\util\delay.h ****     In terms of the delay functions, the CPU frequency can be given as
 104:e:\game\msys2\mingw64\avr\include\util\delay.h ****     a floating-point constant (e.g. 3.6864E6 for 3.6864 MHz).
 105:e:\game\msys2\mingw64\avr\include\util\delay.h ****     However, the macros in <util/setbaud.h> require it to be an
 106:e:\game\msys2\mingw64\avr\include\util\delay.h ****     integer value.
 107:e:\game\msys2\mingw64\avr\include\util\delay.h ****  */
 108:e:\game\msys2\mingw64\avr\include\util\delay.h **** # define F_CPU 1000000UL
 109:e:\game\msys2\mingw64\avr\include\util\delay.h **** #endif
 110:e:\game\msys2\mingw64\avr\include\util\delay.h **** 
 111:e:\game\msys2\mingw64\avr\include\util\delay.h **** #ifndef __OPTIMIZE__
 112:e:\game\msys2\mingw64\avr\include\util\delay.h **** # warning "Compiler optimizations disabled; functions from <util/delay.h> won't work as designed"
 113:e:\game\msys2\mingw64\avr\include\util\delay.h **** #endif
 114:e:\game\msys2\mingw64\avr\include\util\delay.h **** 
 115:e:\game\msys2\mingw64\avr\include\util\delay.h **** #if __HAS_DELAY_CYCLES && defined(__OPTIMIZE__) && \
 116:e:\game\msys2\mingw64\avr\include\util\delay.h ****   !defined(__DELAY_BACKWARD_COMPATIBLE__) &&	   \
 117:e:\game\msys2\mingw64\avr\include\util\delay.h ****   __STDC_HOSTED__
 118:e:\game\msys2\mingw64\avr\include\util\delay.h **** #  include <math.h>
 119:e:\game\msys2\mingw64\avr\include\util\delay.h **** #endif
 120:e:\game\msys2\mingw64\avr\include\util\delay.h **** 
 121:e:\game\msys2\mingw64\avr\include\util\delay.h **** /**
 122:e:\game\msys2\mingw64\avr\include\util\delay.h ****    \ingroup util_delay
 123:e:\game\msys2\mingw64\avr\include\util\delay.h **** 
 124:e:\game\msys2\mingw64\avr\include\util\delay.h ****    Perform a delay of \c __ms milliseconds, using _delay_loop_2().
 125:e:\game\msys2\mingw64\avr\include\util\delay.h **** 
 126:e:\game\msys2\mingw64\avr\include\util\delay.h ****    The macro F_CPU is supposed to be defined to a
 127:e:\game\msys2\mingw64\avr\include\util\delay.h ****    constant defining the CPU clock frequency (in Hertz).
 128:e:\game\msys2\mingw64\avr\include\util\delay.h **** 
 129:e:\game\msys2\mingw64\avr\include\util\delay.h ****    The maximal possible delay is 262.14 ms / F_CPU in MHz.
 130:e:\game\msys2\mingw64\avr\include\util\delay.h **** 
 131:e:\game\msys2\mingw64\avr\include\util\delay.h ****    When the user request delay which exceed the maximum possible one,
 132:e:\game\msys2\mingw64\avr\include\util\delay.h ****    _delay_ms() provides a decreased resolution functionality. In this
 133:e:\game\msys2\mingw64\avr\include\util\delay.h ****    mode _delay_ms() will work with a resolution of 1/10 ms, providing
 134:e:\game\msys2\mingw64\avr\include\util\delay.h ****    delays up to 6.5535 seconds (independent from CPU frequency).  The
 135:e:\game\msys2\mingw64\avr\include\util\delay.h ****    user will not be informed about decreased resolution.
 136:e:\game\msys2\mingw64\avr\include\util\delay.h **** 
 137:e:\game\msys2\mingw64\avr\include\util\delay.h ****    If the avr-gcc toolchain has __builtin_avr_delay_cycles()
 138:e:\game\msys2\mingw64\avr\include\util\delay.h ****    support, maximal possible delay is 4294967.295 ms/ F_CPU in MHz. For
 139:e:\game\msys2\mingw64\avr\include\util\delay.h ****    values greater than the maximal possible delay, overflows results in
 140:e:\game\msys2\mingw64\avr\include\util\delay.h ****    no delay i.e., 0ms.
 141:e:\game\msys2\mingw64\avr\include\util\delay.h **** 
 142:e:\game\msys2\mingw64\avr\include\util\delay.h ****    Conversion of \c __ms into clock cycles may not always result in
 143:e:\game\msys2\mingw64\avr\include\util\delay.h ****    integer.  By default, the clock cycles rounded up to next
 144:e:\game\msys2\mingw64\avr\include\util\delay.h ****    integer. This ensures that the user gets at least \c __ms
 145:e:\game\msys2\mingw64\avr\include\util\delay.h ****    microseconds of delay.
 146:e:\game\msys2\mingw64\avr\include\util\delay.h **** 
 147:e:\game\msys2\mingw64\avr\include\util\delay.h ****    Alternatively, by defining the macro \c __DELAY_ROUND_DOWN__, or
 148:e:\game\msys2\mingw64\avr\include\util\delay.h ****    \c __DELAY_ROUND_CLOSEST__, before including this header file, the
 149:e:\game\msys2\mingw64\avr\include\util\delay.h ****    algorithm can be made to round down, or round to closest integer,
 150:e:\game\msys2\mingw64\avr\include\util\delay.h ****    respectively.
 151:e:\game\msys2\mingw64\avr\include\util\delay.h **** 
 152:e:\game\msys2\mingw64\avr\include\util\delay.h ****    \note
 153:e:\game\msys2\mingw64\avr\include\util\delay.h **** 
 154:e:\game\msys2\mingw64\avr\include\util\delay.h ****    The implementation of _delay_ms() based on
 155:e:\game\msys2\mingw64\avr\include\util\delay.h ****    __builtin_avr_delay_cycles() is not backward compatible with older
 156:e:\game\msys2\mingw64\avr\include\util\delay.h ****    implementations.  In order to get functionality backward compatible
 157:e:\game\msys2\mingw64\avr\include\util\delay.h ****    with previous versions, the macro \c "__DELAY_BACKWARD_COMPATIBLE__"
 158:e:\game\msys2\mingw64\avr\include\util\delay.h ****    must be defined before including this header file. Also, the
 159:e:\game\msys2\mingw64\avr\include\util\delay.h ****    backward compatible algorithm will be chosen if the code is
 160:e:\game\msys2\mingw64\avr\include\util\delay.h ****    compiled in a <em>freestanding environment</em> (GCC option
 161:e:\game\msys2\mingw64\avr\include\util\delay.h ****    \c -ffreestanding), as the math functions required for rounding are
 162:e:\game\msys2\mingw64\avr\include\util\delay.h ****    not available to the compiler then.
 163:e:\game\msys2\mingw64\avr\include\util\delay.h **** 
 164:e:\game\msys2\mingw64\avr\include\util\delay.h ****  */
 165:e:\game\msys2\mingw64\avr\include\util\delay.h **** void
 166:e:\game\msys2\mingw64\avr\include\util\delay.h **** _delay_ms(double __ms)
 2422               		.loc 3 166 1 view .LVU546
 2423               	.LBB88:
 167:e:\game\msys2\mingw64\avr\include\util\delay.h **** {
 168:e:\game\msys2\mingw64\avr\include\util\delay.h **** 	double __tmp ;
 2424               		.loc 3 168 2 view .LVU547
 169:e:\game\msys2\mingw64\avr\include\util\delay.h **** #if __HAS_DELAY_CYCLES && defined(__OPTIMIZE__) && \
 170:e:\game\msys2\mingw64\avr\include\util\delay.h ****   !defined(__DELAY_BACKWARD_COMPATIBLE__) &&	   \
 171:e:\game\msys2\mingw64\avr\include\util\delay.h ****   __STDC_HOSTED__
 172:e:\game\msys2\mingw64\avr\include\util\delay.h **** 	uint32_t __ticks_dc;
 2425               		.loc 3 172 2 view .LVU548
 173:e:\game\msys2\mingw64\avr\include\util\delay.h **** 	extern void __builtin_avr_delay_cycles(unsigned long);
 2426               		.loc 3 173 2 view .LVU549
 174:e:\game\msys2\mingw64\avr\include\util\delay.h **** 	__tmp = ((F_CPU) / 1e3) * __ms;
 2427               		.loc 3 174 2 view .LVU550
 175:e:\game\msys2\mingw64\avr\include\util\delay.h **** 
 176:e:\game\msys2\mingw64\avr\include\util\delay.h **** 	#if defined(__DELAY_ROUND_DOWN__)
 177:e:\game\msys2\mingw64\avr\include\util\delay.h **** 		__ticks_dc = (uint32_t)fabs(__tmp);
 178:e:\game\msys2\mingw64\avr\include\util\delay.h **** 
 179:e:\game\msys2\mingw64\avr\include\util\delay.h **** 	#elif defined(__DELAY_ROUND_CLOSEST__)
 180:e:\game\msys2\mingw64\avr\include\util\delay.h **** 		__ticks_dc = (uint32_t)(fabs(__tmp)+0.5);
 181:e:\game\msys2\mingw64\avr\include\util\delay.h **** 
 182:e:\game\msys2\mingw64\avr\include\util\delay.h **** 	#else
 183:e:\game\msys2\mingw64\avr\include\util\delay.h **** 		//round up by default
 184:e:\game\msys2\mingw64\avr\include\util\delay.h **** 		__ticks_dc = (uint32_t)(ceil(fabs(__tmp)));
 2428               		.loc 3 184 3 view .LVU551
 185:e:\game\msys2\mingw64\avr\include\util\delay.h **** 	#endif
 186:e:\game\msys2\mingw64\avr\include\util\delay.h **** 
 187:e:\game\msys2\mingw64\avr\include\util\delay.h **** 	__builtin_avr_delay_cycles(__ticks_dc);
 2429               		.loc 3 187 2 view .LVU552
 2430 0030 8FE9      		ldi r24,lo8(3999)
 2431 0032 9FE0      		ldi r25,hi8(3999)
 2432 0034 0197      	1:	sbiw r24,1
 2433 0036 01F4      		brne 1b
 2434 0038 00C0      		rjmp .
 2435 003a 0000      		nop
 2436               	.LVL155:
 2437               	.L116:
 2438               	/* epilogue start */
 2439               		.loc 3 187 2 is_stmt 0 view .LVU553
 2440               	.LBE88:
 2441               	.LBE87:
 638:quantum/rgblight.c **** 
 2442               		.loc 1 638 1 view .LVU554
 2443 003c 0F91      		pop r16
 2444               	.LVL156:
 638:quantum/rgblight.c **** 
 2445               		.loc 1 638 1 view .LVU555
 2446 003e 0895      		ret
 2447               		.cfi_endproc
 2448               	.LFE159:
 2450               		.section	.text.rgblight_sethsv_range,"ax",@progbits
 2451               	.global	rgblight_sethsv_range
 2453               	rgblight_sethsv_range:
 2454               	.LVL157:
 2455               	.LFB160:
 640:quantum/rgblight.c ****     if (!rgblight_config.enable) {
 2456               		.loc 1 640 95 is_stmt 1 view -0
 2457               		.cfi_startproc
 640:quantum/rgblight.c ****     if (!rgblight_config.enable) {
 2458               		.loc 1 640 95 is_stmt 0 view .LVU557
 2459 0000 0F93      		push r16
 2460               	.LCFI38:
 2461               		.cfi_def_cfa_offset 3
 2462               		.cfi_offset 16, -2
 2463 0002 1F93      		push r17
 2464               	.LCFI39:
 2465               		.cfi_def_cfa_offset 4
 2466               		.cfi_offset 17, -3
 2467 0004 CF93      		push r28
 2468               	.LCFI40:
 2469               		.cfi_def_cfa_offset 5
 2470               		.cfi_offset 28, -4
 2471 0006 DF93      		push r29
 2472               	.LCFI41:
 2473               		.cfi_def_cfa_offset 6
 2474               		.cfi_offset 29, -5
 2475 0008 00D0      		rcall .
 2476 000a 0F92      		push __tmp_reg__
 2477               	.LCFI42:
 2478               		.cfi_def_cfa_offset 9
 2479 000c CDB7      		in r28,__SP_L__
 2480 000e DEB7      		in r29,__SP_H__
 2481               	.LCFI43:
 2482               		.cfi_def_cfa_register 28
 2483               	/* prologue: function */
 2484               	/* frame size = 3 */
 2485               	/* stack size = 7 */
 2486               	.L__stack_usage = 7
 2487 0010 122F      		mov r17,r18
 641:quantum/rgblight.c ****         return;
 2488               		.loc 1 641 5 is_stmt 1 view .LVU558
 641:quantum/rgblight.c ****         return;
 2489               		.loc 1 641 25 is_stmt 0 view .LVU559
 2490 0012 9091 0000 		lds r25,rgblight_config
 641:quantum/rgblight.c ****         return;
 2491               		.loc 1 641 8 view .LVU560
 2492 0016 90FF      		sbrs r25,0
 2493 0018 00C0      		rjmp .L123
 645:quantum/rgblight.c ****     sethsv(hue, sat, val, &tmp_led);
 2494               		.loc 1 645 5 is_stmt 1 view .LVU561
 646:quantum/rgblight.c ****     rgblight_setrgb_range(tmp_led.r, tmp_led.g, tmp_led.b, start, end);
 2495               		.loc 1 646 5 view .LVU562
 2496               	.LVL158:
 2497               	.LBB91:
 2498               	.LBI91:
 154:quantum/rgblight.c **** 
 2499               		.loc 1 154 6 view .LVU563
 2500               	.LBB92:
 154:quantum/rgblight.c **** 
 2501               		.loc 1 154 70 view .LVU564
 2502 001a 9E01      		movw r18,r28
 2503               	.LVL159:
 154:quantum/rgblight.c **** 
 2504               		.loc 1 154 70 is_stmt 0 view .LVU565
 2505 001c 2F5F      		subi r18,-1
 2506 001e 3F4F      		sbci r19,-1
 2507 0020 0E94 0000 		call sethsv_raw
 2508               	.LVL160:
 154:quantum/rgblight.c **** 
 2509               		.loc 1 154 70 view .LVU566
 2510               	.LBE92:
 2511               	.LBE91:
 647:quantum/rgblight.c **** }
 2512               		.loc 1 647 5 is_stmt 1 view .LVU567
 2513 0024 212F      		mov r18,r17
 2514 0026 4B81      		ldd r20,Y+3
 2515 0028 6981      		ldd r22,Y+1
 2516 002a 8A81      		ldd r24,Y+2
 2517 002c 0E94 0000 		call rgblight_setrgb_range
 2518               	.LVL161:
 2519               	.L123:
 2520               	/* epilogue start */
 648:quantum/rgblight.c **** 
 2521               		.loc 1 648 1 is_stmt 0 view .LVU568
 2522 0030 0F90      		pop __tmp_reg__
 2523 0032 0F90      		pop __tmp_reg__
 2524 0034 0F90      		pop __tmp_reg__
 2525 0036 DF91      		pop r29
 2526 0038 CF91      		pop r28
 2527 003a 1F91      		pop r17
 2528               	.LVL162:
 648:quantum/rgblight.c **** 
 2529               		.loc 1 648 1 view .LVU569
 2530 003c 0F91      		pop r16
 2531               	.LVL163:
 648:quantum/rgblight.c **** 
 2532               		.loc 1 648 1 view .LVU570
 2533 003e 0895      		ret
 2534               		.cfi_endproc
 2535               	.LFE160:
 2537               		.section	.text.rgblight_sethsv_master,"ax",@progbits
 2538               	.global	rgblight_sethsv_master
 2540               	rgblight_sethsv_master:
 2541               	.LVL164:
 2542               	.LFB163:
 655:quantum/rgblight.c **** 
 2543               		.loc 1 655 68 is_stmt 1 view -0
 2544               		.cfi_startproc
 655:quantum/rgblight.c **** 
 2545               		.loc 1 655 68 is_stmt 0 view .LVU572
 2546 0000 0F93      		push r16
 2547               	.LCFI44:
 2548               		.cfi_def_cfa_offset 3
 2549               		.cfi_offset 16, -2
 2550               	/* prologue: function */
 2551               	/* frame size = 0 */
 2552               	/* stack size = 1 */
 2553               	.L__stack_usage = 1
 655:quantum/rgblight.c **** 
 2554               		.loc 1 655 70 is_stmt 1 view .LVU573
 2555 0002 04E0      		ldi r16,lo8(4)
 2556 0004 20E0      		ldi r18,0
 2557 0006 0E94 0000 		call rgblight_sethsv_range
 2558               	.LVL165:
 2559               	/* epilogue start */
 655:quantum/rgblight.c **** 
 2560               		.loc 1 655 1 is_stmt 0 view .LVU574
 2561 000a 0F91      		pop r16
 2562 000c 0895      		ret
 2563               		.cfi_endproc
 2564               	.LFE163:
 2566               		.section	.text.rgblight_sethsv_slave,"ax",@progbits
 2567               	.global	rgblight_sethsv_slave
 2569               	rgblight_sethsv_slave:
 2570               	.LVL166:
 2571               	.LFB164:
 657:quantum/rgblight.c **** #endif  // ifndef RGBLIGHT_SPLIT
 2572               		.loc 1 657 67 is_stmt 1 view -0
 2573               		.cfi_startproc
 657:quantum/rgblight.c **** #endif  // ifndef RGBLIGHT_SPLIT
 2574               		.loc 1 657 67 is_stmt 0 view .LVU576
 2575 0000 0F93      		push r16
 2576               	.LCFI45:
 2577               		.cfi_def_cfa_offset 3
 2578               		.cfi_offset 16, -2
 2579               	/* prologue: function */
 2580               	/* frame size = 0 */
 2581               	/* stack size = 1 */
 2582               	.L__stack_usage = 1
 657:quantum/rgblight.c **** #endif  // ifndef RGBLIGHT_SPLIT
 2583               		.loc 1 657 69 is_stmt 1 view .LVU577
 2584 0002 08E0      		ldi r16,lo8(8)
 2585 0004 24E0      		ldi r18,lo8(4)
 2586 0006 0E94 0000 		call rgblight_sethsv_range
 2587               	.LVL167:
 2588               	/* epilogue start */
 657:quantum/rgblight.c **** #endif  // ifndef RGBLIGHT_SPLIT
 2589               		.loc 1 657 1 is_stmt 0 view .LVU578
 2590 000a 0F91      		pop r16
 2591 000c 0895      		ret
 2592               		.cfi_endproc
 2593               	.LFE164:
 2595               		.section	.text.rgblight_setrgb_master,"ax",@progbits
 2596               	.global	rgblight_setrgb_master
 2598               	rgblight_setrgb_master:
 2599               	.LVL168:
 2600               	.LFB161:
 651:quantum/rgblight.c **** 
 2601               		.loc 1 651 62 is_stmt 1 view -0
 2602               		.cfi_startproc
 651:quantum/rgblight.c **** 
 2603               		.loc 1 651 62 is_stmt 0 view .LVU580
 2604 0000 0F93      		push r16
 2605               	.LCFI46:
 2606               		.cfi_def_cfa_offset 3
 2607               		.cfi_offset 16, -2
 2608               	/* prologue: function */
 2609               	/* frame size = 0 */
 2610               	/* stack size = 1 */
 2611               	.L__stack_usage = 1
 651:quantum/rgblight.c **** 
 2612               		.loc 1 651 64 is_stmt 1 view .LVU581
 2613 0002 04E0      		ldi r16,lo8(4)
 2614 0004 20E0      		ldi r18,0
 2615 0006 0E94 0000 		call rgblight_setrgb_range
 2616               	.LVL169:
 2617               	/* epilogue start */
 651:quantum/rgblight.c **** 
 2618               		.loc 1 651 1 is_stmt 0 view .LVU582
 2619 000a 0F91      		pop r16
 2620 000c 0895      		ret
 2621               		.cfi_endproc
 2622               	.LFE161:
 2624               		.section	.text.rgblight_setrgb_slave,"ax",@progbits
 2625               	.global	rgblight_setrgb_slave
 2627               	rgblight_setrgb_slave:
 2628               	.LVL170:
 2629               	.LFB162:
 653:quantum/rgblight.c **** 
 2630               		.loc 1 653 61 is_stmt 1 view -0
 2631               		.cfi_startproc
 653:quantum/rgblight.c **** 
 2632               		.loc 1 653 61 is_stmt 0 view .LVU584
 2633 0000 0F93      		push r16
 2634               	.LCFI47:
 2635               		.cfi_def_cfa_offset 3
 2636               		.cfi_offset 16, -2
 2637               	/* prologue: function */
 2638               	/* frame size = 0 */
 2639               	/* stack size = 1 */
 2640               	.L__stack_usage = 1
 653:quantum/rgblight.c **** 
 2641               		.loc 1 653 63 is_stmt 1 view .LVU585
 2642 0002 08E0      		ldi r16,lo8(8)
 2643 0004 24E0      		ldi r18,lo8(4)
 2644 0006 0E94 0000 		call rgblight_setrgb_range
 2645               	.LVL171:
 2646               	/* epilogue start */
 653:quantum/rgblight.c **** 
 2647               		.loc 1 653 1 is_stmt 0 view .LVU586
 2648 000a 0F91      		pop r16
 2649 000c 0895      		ret
 2650               		.cfi_endproc
 2651               	.LFE162:
 2653               		.section	.text.rgblight_effect_rainbow_swirl,"ax",@progbits
 2654               	.global	rgblight_effect_rainbow_swirl
 2656               	rgblight_effect_rainbow_swirl:
 2657               	.LVL172:
 2658               	.LFB177:
1095:quantum/rgblight.c ****     uint8_t hue;
 2659               		.loc 1 1095 62 is_stmt 1 view -0
 2660               		.cfi_startproc
1095:quantum/rgblight.c ****     uint8_t hue;
 2661               		.loc 1 1095 62 is_stmt 0 view .LVU588
 2662 0000 EF92      		push r14
 2663               	.LCFI48:
 2664               		.cfi_def_cfa_offset 3
 2665               		.cfi_offset 14, -2
 2666 0002 FF92      		push r15
 2667               	.LCFI49:
 2668               		.cfi_def_cfa_offset 4
 2669               		.cfi_offset 15, -3
 2670 0004 1F93      		push r17
 2671               	.LCFI50:
 2672               		.cfi_def_cfa_offset 5
 2673               		.cfi_offset 17, -4
 2674 0006 CF93      		push r28
 2675               	.LCFI51:
 2676               		.cfi_def_cfa_offset 6
 2677               		.cfi_offset 28, -5
 2678 0008 DF93      		push r29
 2679               	.LCFI52:
 2680               		.cfi_def_cfa_offset 7
 2681               		.cfi_offset 29, -6
 2682               	/* prologue: function */
 2683               	/* frame size = 0 */
 2684               	/* stack size = 5 */
 2685               	.L__stack_usage = 5
 2686 000a EC01      		movw r28,r24
1096:quantum/rgblight.c ****     uint8_t i;
 2687               		.loc 1 1096 5 is_stmt 1 view .LVU589
1097:quantum/rgblight.c **** 
 2688               		.loc 1 1097 5 view .LVU590
1099:quantum/rgblight.c ****         hue = (RGBLIGHT_RAINBOW_SWIRL_RANGE / rgblight_ranges.effect_num_leds * i + anim->current_h
 2689               		.loc 1 1099 5 view .LVU591
 2690               	.LVL173:
1099:quantum/rgblight.c ****         hue = (RGBLIGHT_RAINBOW_SWIRL_RANGE / rgblight_ranges.effect_num_leds * i + anim->current_h
 2691               		.loc 1 1099 12 is_stmt 0 view .LVU592
 2692 000c 10E0      		ldi r17,0
1100:quantum/rgblight.c ****         sethsv(hue, rgblight_config.sat, rgblight_config.val, (LED_TYPE *)&led[i + rgblight_ranges.
 2693               		.loc 1 1100 45 view .LVU593
 2694 000e EE24      		clr r14
 2695 0010 EA94      		dec r14
 2696 0012 F12C      		mov r15,__zero_reg__
 2697               	.LVL174:
 2698               	.L131:
1099:quantum/rgblight.c ****         hue = (RGBLIGHT_RAINBOW_SWIRL_RANGE / rgblight_ranges.effect_num_leds * i + anim->current_h
 2699               		.loc 1 1099 17 is_stmt 1 discriminator 1 view .LVU594
1099:quantum/rgblight.c ****         hue = (RGBLIGHT_RAINBOW_SWIRL_RANGE / rgblight_ranges.effect_num_leds * i + anim->current_h
 2700               		.loc 1 1099 36 is_stmt 0 discriminator 1 view .LVU595
 2701 0014 6091 0000 		lds r22,rgblight_ranges+4
1099:quantum/rgblight.c ****         hue = (RGBLIGHT_RAINBOW_SWIRL_RANGE / rgblight_ranges.effect_num_leds * i + anim->current_h
 2702               		.loc 1 1099 5 discriminator 1 view .LVU596
 2703 0018 1617      		cp r17,r22
 2704 001a 00F0      		brlo .L132
1103:quantum/rgblight.c **** 
 2705               		.loc 1 1103 5 is_stmt 1 view .LVU597
 2706 001c 0E94 0000 		call rgblight_set
 2707               	.LVL175:
1105:quantum/rgblight.c ****         anim->current_hue++;
 2708               		.loc 1 1105 5 view .LVU598
1105:quantum/rgblight.c ****         anim->current_hue++;
 2709               		.loc 1 1105 9 is_stmt 0 view .LVU599
 2710 0020 9A81      		ldd r25,Y+2
 2711 0022 8C81      		ldd r24,Y+4
1105:quantum/rgblight.c ****         anim->current_hue++;
 2712               		.loc 1 1105 8 view .LVU600
 2713 0024 90FF      		sbrs r25,0
 2714 0026 00C0      		rjmp .L133
1106:quantum/rgblight.c ****     } else {
 2715               		.loc 1 1106 9 is_stmt 1 view .LVU601
1106:quantum/rgblight.c ****     } else {
 2716               		.loc 1 1106 26 is_stmt 0 view .LVU602
 2717 0028 8F5F      		subi r24,lo8(-(1))
 2718               	.L135:
1108:quantum/rgblight.c ****     }
 2719               		.loc 1 1108 26 view .LVU603
 2720 002a 8C83      		std Y+4,r24
 2721               	/* epilogue start */
1110:quantum/rgblight.c **** #endif
 2722               		.loc 1 1110 1 view .LVU604
 2723 002c DF91      		pop r29
 2724 002e CF91      		pop r28
 2725               	.LVL176:
1110:quantum/rgblight.c **** #endif
 2726               		.loc 1 1110 1 view .LVU605
 2727 0030 1F91      		pop r17
 2728               	.LVL177:
1110:quantum/rgblight.c **** #endif
 2729               		.loc 1 1110 1 view .LVU606
 2730 0032 FF90      		pop r15
 2731 0034 EF90      		pop r14
 2732 0036 0895      		ret
 2733               	.LVL178:
 2734               	.L132:
1100:quantum/rgblight.c ****         sethsv(hue, rgblight_config.sat, rgblight_config.val, (LED_TYPE *)&led[i + rgblight_ranges.
 2735               		.loc 1 1100 9 is_stmt 1 discriminator 3 view .LVU607
1101:quantum/rgblight.c ****     }
 2736               		.loc 1 1101 9 discriminator 3 view .LVU608
 2737               	.LBB95:
 2738               	.LBI95:
 154:quantum/rgblight.c **** 
 2739               		.loc 1 154 6 discriminator 3 view .LVU609
 2740               	.LBB96:
 154:quantum/rgblight.c **** 
 2741               		.loc 1 154 70 discriminator 3 view .LVU610
 2742               	.LBE96:
 2743               	.LBE95:
1101:quantum/rgblight.c ****     }
 2744               		.loc 1 1101 99 is_stmt 0 discriminator 3 view .LVU611
 2745 0038 2091 0000 		lds r18,rgblight_ranges+2
1101:quantum/rgblight.c ****     }
 2746               		.loc 1 1101 82 discriminator 3 view .LVU612
 2747 003c 422F      		mov r20,r18
 2748 003e 410F      		add r20,r17
 2749 0040 5527      		clr r21
 2750 0042 551F      		rol r21
 2751 0044 CA01      		movw r24,r20
1101:quantum/rgblight.c ****     }
 2752               		.loc 1 1101 9 discriminator 3 view .LVU613
 2753 0046 9A01      		movw r18,r20
 2754 0048 220F      		lsl r18
 2755 004a 331F      		rol r19
 2756 004c 280F      		add r18,r24
 2757 004e 391F      		adc r19,r25
 2758 0050 2050      		subi r18,lo8(-(led))
 2759 0052 3040      		sbci r19,hi8(-(led))
1100:quantum/rgblight.c ****         sethsv(hue, rgblight_config.sat, rgblight_config.val, (LED_TYPE *)&led[i + rgblight_ranges.
 2760               		.loc 1 1100 62 discriminator 3 view .LVU614
 2761 0054 70E0      		ldi r23,0
1100:quantum/rgblight.c ****         sethsv(hue, rgblight_config.sat, rgblight_config.val, (LED_TYPE *)&led[i + rgblight_ranges.
 2762               		.loc 1 1100 45 discriminator 3 view .LVU615
 2763 0056 C701      		movw r24,r14
 2764 0058 0E94 0000 		call __divmodhi4
 2765               	.LVL179:
1100:quantum/rgblight.c ****         sethsv(hue, rgblight_config.sat, rgblight_config.val, (LED_TYPE *)&led[i + rgblight_ranges.
